

Microchip MPLAB XC8 Assembler V2.32 build 20210201212658 
                                                                                               Wed Jun 29 10:53:03 2022

Microchip MPLAB XC8 C Compiler v2.32 (Free license) build 20210201212658 Og1 
     1                           	processor	18F4520
     2                           	fnconf	rparam,??,?,0
     3                           	pagewidth 120
     4                           	opt	flic
     5                           	psect	cinit,global,reloc=2,class=CODE,delta=1
     6                           	psect	bssCOMRAM,global,class=COMRAM,space=1,delta=1,lowdata,noexec
     7                           	psect	cstackCOMRAM,global,class=COMRAM,space=1,delta=1,lowdata,noexec
     8                           	psect	text0,global,reloc=2,class=CODE,delta=1
     9                           	psect	text1,global,reloc=2,class=CODE,delta=1
    10                           	psect	text2,global,reloc=2,class=CODE,delta=1
    11                           	psect	text3,global,reloc=2,class=CODE,delta=1
    12                           	psect	text4,global,reloc=2,class=CODE,delta=1
    13                           	psect	text5,global,reloc=2,class=CODE,delta=1,group=1
    14                           	psect	text6,global,reloc=2,class=CODE,delta=1,group=1
    15                           	psect	text7,global,reloc=2,class=CODE,delta=1,group=1
    16                           	psect	intcode,global,reloc=2,class=CODE,delta=1
    17                           	psect	intcode_body,global,reloc=2,class=CODE,delta=1
    18                           	psect	intsave_regs,global,class=BIGRAM,space=1,delta=1,noexec
    19                           	psect	rparam,global,class=COMRAM,space=1,delta=1,noexec
    20                           	psect	temp,global,ovrld,common,class=COMRAM,space=1,delta=1
    21                           	psect	idloc,global,abs,ovrld,class=IDLOC,space=5,delta=1,noexec
    22                           	psect	config,global,abs,ovrld,class=CONFIG,space=4,delta=1,noexec
    23  0000                     
    24                           ; Version 2.20
    25                           ; Generated 12/02/2020 GMT
    26                           ; 
    27                           ; Copyright © 2020, Microchip Technology Inc. and its subsidiaries ("Microchip")
    28                           ; All rights reserved.
    29                           ; 
    30                           ; This software is developed by Microchip Technology Inc. and its subsidiaries ("Microch
      +                          ip").
    31                           ; 
    32                           ; Redistribution and use in source and binary forms, with or without modification, are
    33                           ; permitted provided that the following conditions are met:
    34                           ; 
    35                           ;     1. Redistributions of source code must retain the above copyright notice, this lis
      +                          t of
    36                           ;        conditions and the following disclaimer.
    37                           ; 
    38                           ;     2. Redistributions in binary form must reproduce the above copyright notice, this 
      +                          list
    39                           ;        of conditions and the following disclaimer in the documentation and/or other
    40                           ;        materials provided with the distribution.
    41                           ; 
    42                           ;     3. Microchip's name may not be used to endorse or promote products derived from th
      +                          is
    43                           ;        software without specific prior written permission.
    44                           ; 
    45                           ; THIS SOFTWARE IS PROVIDED BY MICROCHIP "AS IS" AND ANY EXPRESS OR IMPLIED WARRANTIES,
    46                           ; INCLUDING, BUT NOT LIMITED TO, THE IMPLIED WARRANTIES OF MERCHANTABILITY AND FITNESS F
      +                          OR
    47                           ; PURPOSE ARE DISCLAIMED.  IN NO EVENT SHALL MICROCHIP BE LIABLE FOR ANY DIRECT, INDIREC
      +                          T,
    48                           ; INCIDENTAL, SPECIAL, EXEMPLARY, OR CONSEQUENTIAL DAMAGES (INCLUDING BUT NOT LIMITED TO
    49                           ; PROCUREMENT OF SUBSTITUTE GOODS OR SERVICES; LOSS OF USE, DATA OR PROFITS; OR BUSINESS
    50                           ; INTERRUPTION) HOWSOEVER CAUSED AND ON ANY THEORY OF LIABILITY, WHETHER IN CONTRACT, ST
      +                          RICT
    51                           ; LIABILITY, OR TORT (INCLUDING NEGLIGENCE OR OTHERWISE) ARISING IN ANY WAY OUT OF THE U
      +                          SE OF
    52                           ; THIS SOFTWARE, EVEN IF ADVISED OF THE POSSIBILITY OF SUCH DAMAGE.
    53                           ; 
    54                           ; 
    55                           ; Code-generator required, PIC18F4520 Definitions
    56                           ; 
    57                           ; SFR Addresses
    58  0000                     _INTCON	set	4082
    59  0000                     _PORTB	set	3969
    60  0000                     _TRISD	set	3989
    61  0000                     _TRISB	set	3987
    62  0000                     _CMCON	set	4020
    63  0000                     _ADCON1	set	4033
    64  0000                     _T0CONbits	set	4053
    65  0000                     _TMR0L	set	4054
    66  0000                     _TMR0H	set	4055
    67  0000                     _PORTDbits	set	3971
    68  0000                     _PORTBbits	set	3969
    69  0000                     _PORTD	set	3971
    70  0000                     _INTCONbits	set	4082
    71                           
    72                           ; #config settings
    73                           
    74                           	psect	cinit
    75  0012B4                     __pcinit:
    76                           	callstack 0
    77  0012B4                     start_initialization:
    78                           	callstack 0
    79  0012B4                     __initialization:
    80                           	callstack 0
    81                           
    82                           ; Clear objects allocated to COMRAM (33 bytes)
    83  0012B4  EE00  F029         	lfsr	0,__pbssCOMRAM
    84  0012B8  0E21               	movlw	33
    85  0012BA                     clear_0:
    86  0012BA  6AEE               	clrf	postinc0,c
    87  0012BC  06E8               	decf	wreg,f,c
    88  0012BE  E1FD               	bnz	clear_0
    89  0012C0                     end_of_initialization:
    90                           	callstack 0
    91  0012C0                     __end_of__initialization:
    92                           	callstack 0
    93  0012C0  904A               	bcf	int$flags,0,c	;clear compiler interrupt flag (level 1)
    94  0012C2  924A               	bcf	int$flags,1,c	;clear compiler interrupt flag (level 2)
    95  0012C4  0100               	movlb	0
    96  0012C6  EF09  F000         	goto	_main	;jump to C main() function
    97                           
    98                           	psect	bssCOMRAM
    99  000029                     __pbssCOMRAM:
   100                           	callstack 0
   101  000029                     _pisca:
   102                           	callstack 0
   103  000029                     	ds	2
   104  00002B                     _cont:
   105                           	callstack 0
   106  00002B                     	ds	1
   107  00002C                     _cor:
   108                           	callstack 0
   109  00002C                     	ds	1
   110  00002D                     _conta:
   111                           	callstack 0
   112  00002D                     	ds	1
   113  00002E                     _linha:
   114                           	callstack 0
   115  00002E                     	ds	1
   116  00002F                     _cursor:
   117                           	callstack 0
   118  00002F                     	ds	9
   119  000038                     _vermelho:
   120                           	callstack 0
   121  000038                     	ds	9
   122  000041                     _verde:
   123                           	callstack 0
   124  000041                     	ds	9
   125                           
   126                           	psect	cstackCOMRAM
   127  000001                     __pcstackCOMRAM:
   128                           	callstack 0
   129  000001                     ??_interrupt_PIC:
   130  000001                     
   131                           ; 1 bytes @ 0x0
   132  000001                     	ds	7
   133  000008                     ?___awdiv:
   134                           	callstack 0
   135  000008                     ?___awmod:
   136                           	callstack 0
   137  000008                     testa_ganhou@teste:
   138                           	callstack 0
   139  000008                     testa_velha@teste1:
   140                           	callstack 0
   141  000008                     limpa_matriz@matriz:
   142                           	callstack 0
   143  000008                     ___awdiv@dividend:
   144                           	callstack 0
   145  000008                     ___awmod@dividend:
   146                           	callstack 0
   147                           
   148                           ; 2 bytes @ 0x7
   149  000008                     	ds	2
   150  00000A                     ??_limpa_matriz:
   151  00000A                     testa_velha@teste2:
   152                           	callstack 0
   153  00000A                     ___awdiv@divisor:
   154                           	callstack 0
   155  00000A                     ___awmod@divisor:
   156                           	callstack 0
   157                           
   158                           ; 2 bytes @ 0x9
   159  00000A                     	ds	2
   160  00000C                     ??_testa_velha:
   161  00000C                     limpa_matriz@i:
   162                           	callstack 0
   163  00000C                     ___awdiv@counter:
   164                           	callstack 0
   165  00000C                     ___awmod@counter:
   166                           	callstack 0
   167                           
   168                           ; 1 bytes @ 0xB
   169  00000C                     	ds	1
   170  00000D                     limpa_matriz@j:
   171                           	callstack 0
   172  00000D                     ___awdiv@sign:
   173                           	callstack 0
   174  00000D                     ___awmod@sign:
   175                           	callstack 0
   176                           
   177                           ; 1 bytes @ 0xC
   178  00000D                     	ds	1
   179  00000E                     ___awdiv@quotient:
   180                           	callstack 0
   181                           
   182                           ; 2 bytes @ 0xD
   183  00000E                     	ds	2
   184  000010                     ?___wmul:
   185                           	callstack 0
   186  000010                     ___wmul@multiplier:
   187                           	callstack 0
   188                           
   189                           ; 2 bytes @ 0xF
   190  000010                     	ds	1
   191  000011                     testa_velha@soma:
   192                           	callstack 0
   193                           
   194                           ; 1 bytes @ 0x10
   195  000011                     	ds	1
   196  000012                     testa_velha@i:
   197                           	callstack 0
   198  000012                     ___wmul@multiplicand:
   199                           	callstack 0
   200                           
   201                           ; 2 bytes @ 0x11
   202  000012                     	ds	1
   203  000013                     testa_velha@j:
   204                           	callstack 0
   205                           
   206                           ; 1 bytes @ 0x12
   207  000013                     	ds	1
   208  000014                     ___wmul@product:
   209                           	callstack 0
   210                           
   211                           ; 2 bytes @ 0x13
   212  000014                     	ds	2
   213  000016                     ??_main:
   214                           
   215                           ; 1 bytes @ 0x15
   216  000016                     	ds	3
   217  000019                     main@marcados:
   218                           	callstack 0
   219                           
   220                           ; 9 bytes @ 0x18
   221  000019                     	ds	9
   222  000022                     main@aux:
   223                           	callstack 0
   224                           
   225                           ; 1 bytes @ 0x21
   226  000022                     	ds	1
   227  000023                     main@MOVE_Old:
   228                           	callstack 0
   229                           
   230                           ; 1 bytes @ 0x22
   231  000023                     	ds	1
   232  000024                     main@SEL_Old:
   233                           	callstack 0
   234                           
   235                           ; 1 bytes @ 0x23
   236  000024                     	ds	1
   237  000025                     main@pontuacao_vermelho:
   238                           	callstack 0
   239                           
   240                           ; 1 bytes @ 0x24
   241  000025                     	ds	1
   242  000026                     main@pontuacao_verde:
   243                           	callstack 0
   244                           
   245                           ; 1 bytes @ 0x25
   246  000026                     	ds	1
   247  000027                     main@i:
   248                           	callstack 0
   249                           
   250                           ; 1 bytes @ 0x26
   251  000027                     	ds	1
   252  000028                     main@posicao:
   253                           	callstack 0
   254                           
   255                           ; 1 bytes @ 0x27
   256  000028                     	ds	1
   257                           
   258 ;;
   259 ;;Main: autosize = 0, tempsize = 3, incstack = 0, save=0
   260 ;;
   261 ;; *************** function _main *****************
   262 ;; Defined at:
   263 ;;		line 156 in file "main.c"
   264 ;; Parameters:    Size  Location     Type
   265 ;;		None
   266 ;; Auto vars:     Size  Location     Type
   267 ;;  marcados        9   24[COMRAM] unsigned char [3][3]
   268 ;;  posicao         1   39[COMRAM] char 
   269 ;;  i               1   38[COMRAM] unsigned char 
   270 ;;  pontuacao_ve    1   37[COMRAM] unsigned char 
   271 ;;  pontuacao_ve    1   36[COMRAM] unsigned char 
   272 ;;  SEL_Old         1   35[COMRAM] unsigned char 
   273 ;;  MOVE_Old        1   34[COMRAM] unsigned char 
   274 ;;  aux             1   33[COMRAM] unsigned char 
   275 ;;  j               1    0        unsigned char 
   276 ;; Return value:  Size  Location     Type
   277 ;;                  1    wreg      void 
   278 ;; Registers used:
   279 ;;		wreg, fsr2l, fsr2h, status,2, status,0, prodl, prodh, cstack
   280 ;; Tracked objects:
   281 ;;		On entry : 0/0
   282 ;;		On exit  : 0/0
   283 ;;		Unchanged: 0/0
   284 ;; Data sizes:     COMRAM   BANK0   BANK1   BANK2   BANK3   BANK4   BANK5
   285 ;;      Params:         0       0       0       0       0       0       0
   286 ;;      Locals:        16       0       0       0       0       0       0
   287 ;;      Temps:          3       0       0       0       0       0       0
   288 ;;      Totals:        19       0       0       0       0       0       0
   289 ;;Total ram usage:       19 bytes
   290 ;; Hardware stack levels required when called: 2
   291 ;; This function calls:
   292 ;;		___awdiv
   293 ;;		___awmod
   294 ;;		___wmul
   295 ;;		_conf_interrupt
   296 ;;		_limpa_matriz
   297 ;;		_testa_ganhou
   298 ;;		_testa_velha
   299 ;; This function is called by:
   300 ;;		Startup code after reset
   301 ;; This function uses a non-reentrant model
   302 ;;
   303                           
   304                           	psect	text0
   305  000012                     __ptext0:
   306                           	callstack 0
   307  000012                     _main:
   308                           	callstack 29
   309  000012                     
   310                           ;main.c: 159:     MOVE_Old = 1;;main.c: 160:     SEL_Old = 1;;main.c: 161:     cursor[0]
      +                          [0] = 1;
   311  000012  EC4D  F009         	call	_conf_interrupt	;wreg free
   312  000016                     
   313                           ;main.c: 164:     pontuacao_vermelho = 0;
   314  000016  0E41               	movlw	low _verde
   315  000018  6E08               	movwf	limpa_matriz@matriz^0,c
   316  00001A  0E00               	movlw	high _verde
   317  00001C  6E09               	movwf	(limpa_matriz@matriz+1)^0,c
   318  00001E  EC11  F009         	call	_limpa_matriz	;wreg free
   319  000022                     
   320                           ;main.c: 165:     pontuacao_verde = 0;
   321  000022  0E38               	movlw	low _vermelho
   322  000024  6E08               	movwf	limpa_matriz@matriz^0,c
   323  000026  0E00               	movlw	high _vermelho
   324  000028  6E09               	movwf	(limpa_matriz@matriz+1)^0,c
   325  00002A  EC11  F009         	call	_limpa_matriz	;wreg free
   326  00002E                     
   327                           ;main.c: 166: 
   328  00002E  0E2F               	movlw	low _cursor
   329  000030  6E08               	movwf	limpa_matriz@matriz^0,c
   330  000032  0E00               	movlw	high _cursor
   331  000034  6E09               	movwf	(limpa_matriz@matriz+1)^0,c
   332  000036  EC11  F009         	call	_limpa_matriz	;wreg free
   333  00003A                     
   334                           ;main.c: 167: 
   335  00003A  0E19               	movlw	low main@marcados
   336  00003C  6E08               	movwf	limpa_matriz@matriz^0,c
   337  00003E  0E00               	movlw	high main@marcados
   338  000040  6E09               	movwf	(limpa_matriz@matriz+1)^0,c
   339  000042  EC11  F009         	call	_limpa_matriz	;wreg free
   340  000046                     
   341                           ;main.c: 169:     CMCON = 0xFF;
   342  000046  0E00               	movlw	0
   343  000048  6E2A               	movwf	(_pisca+1)^0,c
   344  00004A  0E01               	movlw	1
   345  00004C  6E29               	movwf	_pisca^0,c
   346  00004E                     
   347                           ;main.c: 170:     TRISB = 0x18;
   348  00004E  0E00               	movlw	0
   349  000050  6E2E               	movwf	_linha^0,c
   350  000052                     
   351                           ;main.c: 171:     TRISD = 0x00;
   352  000052  6828               	setf	main@posicao^0,c
   353  000054                     
   354                           ;main.c: 172:     PORTB = 1;
   355  000054  0E01               	movlw	1
   356  000056  6E23               	movwf	main@MOVE_Old^0,c
   357  000058                     
   358                           ;main.c: 173:     PORTD = 0;
   359  000058  0E01               	movlw	1
   360  00005A  6E24               	movwf	main@SEL_Old^0,c
   361  00005C                     
   362                           ;main.c: 174:     TMR0H = 11;
   363  00005C  0E01               	movlw	1
   364  00005E  6E2F               	movwf	_cursor^0,c
   365  000060                     
   366                           ;main.c: 175:     INTCON = 0xA0;
   367  000060  0E00               	movlw	0
   368  000062  6E2C               	movwf	_cor^0,c
   369  000064                     
   370                           ;main.c: 177:     while(1)
   371  000064  0E00               	movlw	0
   372  000066  6E25               	movwf	main@pontuacao_vermelho^0,c
   373  000068                     
   374                           ;main.c: 178:     {
   375  000068  0E00               	movlw	0
   376  00006A  6E26               	movwf	main@pontuacao_verde^0,c
   377  00006C                     
   378                           ;main.c: 182: 
   379  00006C  68B4               	setf	180,c	;volatile
   380  00006E                     
   381                           ;main.c: 183: 
   382  00006E  0E18               	movlw	24
   383  000070  6E93               	movwf	147,c	;volatile
   384  000072                     
   385                           ;main.c: 184:         if(PORTBbits.RB3 == 1 && MOVE_Old == 1)
   386  000072  0E00               	movlw	0
   387  000074  6E95               	movwf	149,c	;volatile
   388  000076                     
   389                           ;main.c: 185:         {
   390  000076  0E01               	movlw	1
   391  000078  6E81               	movwf	129,c	;volatile
   392  00007A                     
   393                           ;main.c: 186:             aux = 0;
   394  00007A  0E00               	movlw	0
   395  00007C  6E83               	movwf	131,c	;volatile
   396  00007E                     
   397                           ;main.c: 187:             cursor[(posicao)/3][(posicao)%3] = 0;
   398  00007E  0E0B               	movlw	11
   399  000080  6ED7               	movwf	215,c	;volatile
   400  000082                     
   401                           ;main.c: 188:             if((posicao) == 9)
   402  000082  0EA0               	movlw	160
   403  000084  6EF2               	movwf	242,c	;volatile
   404  000086                     l1570:
   405                           
   406                           ;main.c: 191:             while(aux != 1) {;main.c: 197:                 }
   407  000086  A681               	btfss	129,3,c	;volatile
   408  000088  EF48  F000         	goto	u1241
   409  00008C  EF4A  F000         	goto	u1240
   410  000090                     u1241:
   411  000090  EF06  F001         	goto	l1596
   412  000094                     u1240:
   413  000094  0423               	decf	main@MOVE_Old^0,w,c
   414  000096  A4D8               	btfss	status,2,c
   415  000098  EF50  F000         	goto	u1251
   416  00009C  EF52  F000         	goto	u1250
   417  0000A0                     u1251:
   418  0000A0  EF06  F001         	goto	l1596
   419  0000A4                     u1250:
   420  0000A4                     
   421                           ;main.c: 198: ;main.c: 199:             }
   422  0000A4  0E00               	movlw	0
   423  0000A6  6E22               	movwf	main@aux^0,c
   424  0000A8                     
   425                           ;main.c: 200: 
   426  0000A8  0E00               	movlw	0
   427  0000AA  6E0B               	movwf	(___awdiv@divisor+1)^0,c
   428  0000AC  0E03               	movlw	3
   429  0000AE  6E0A               	movwf	___awdiv@divisor^0,c
   430  0000B0  5028               	movf	main@posicao^0,w,c
   431  0000B2  6E08               	movwf	___awdiv@dividend^0,c
   432  0000B4  6A09               	clrf	(___awdiv@dividend+1)^0,c
   433  0000B6  BE08               	btfsc	___awdiv@dividend^0,7,c
   434  0000B8  0609               	decf	(___awdiv@dividend+1)^0,f,c
   435  0000BA  EC0C  F008         	call	___awdiv	;wreg free
   436  0000BE  C008  F010         	movff	?___awdiv,___wmul@multiplier
   437  0000C2  C009  F011         	movff	?___awdiv+1,___wmul@multiplier+1
   438  0000C6  0E00               	movlw	0
   439  0000C8  6E13               	movwf	(___wmul@multiplicand+1)^0,c
   440  0000CA  0E03               	movlw	3
   441  0000CC  6E12               	movwf	___wmul@multiplicand^0,c
   442  0000CE  EC3A  F009         	call	___wmul	;wreg free
   443  0000D2  0E2F               	movlw	low _cursor
   444  0000D4  6E16               	movwf	??_main^0,c
   445  0000D6  0E00               	movlw	high _cursor
   446  0000D8  6E17               	movwf	(??_main+1)^0,c
   447  0000DA  5010               	movf	?___wmul^0,w,c
   448  0000DC  2616               	addwf	??_main^0,f,c
   449  0000DE  5011               	movf	(?___wmul+1)^0,w,c
   450  0000E0  2217               	addwfc	(??_main+1)^0,f,c
   451  0000E2  5028               	movf	main@posicao^0,w,c
   452  0000E4  6E08               	movwf	___awmod@dividend^0,c
   453  0000E6  6A09               	clrf	(___awmod@dividend+1)^0,c
   454  0000E8  BE08               	btfsc	___awmod@dividend^0,7,c
   455  0000EA  0609               	decf	(___awmod@dividend+1)^0,f,c
   456  0000EC  0E00               	movlw	0
   457  0000EE  6E0B               	movwf	(___awmod@divisor+1)^0,c
   458  0000F0  0E03               	movlw	3
   459  0000F2  6E0A               	movwf	___awmod@divisor^0,c
   460  0000F4  EC6E  F008         	call	___awmod	;wreg free
   461  0000F8  5008               	movf	?___awmod^0,w,c
   462  0000FA  2416               	addwf	??_main^0,w,c
   463  0000FC  6ED9               	movwf	fsr2l,c
   464  0000FE  5009               	movf	(?___awmod+1)^0,w,c
   465  000100  2017               	addwfc	(??_main+1)^0,w,c
   466  000102  6EDA               	movwf	fsr2h,c
   467  000104  0E00               	movlw	0
   468  000106  6EDF               	movwf	indf2,c
   469  000108                     
   470                           ;main.c: 201: 
   471  000108  0E09               	movlw	9
   472  00010A  1828               	xorwf	main@posicao^0,w,c
   473  00010C  A4D8               	btfss	status,2,c
   474  00010E  EF8B  F000         	goto	u1261
   475  000112  EF8D  F000         	goto	u1260
   476  000116                     u1261:
   477  000116  EF8F  F000         	goto	l1582
   478  00011A                     u1260:
   479  00011A                     
   480                           ;main.c: 202:             cursor[(posicao)/3][(posicao)%3] = 1;
   481  00011A  0E00               	movlw	0
   482  00011C  6E28               	movwf	main@posicao^0,c
   483  00011E                     l1582:
   484                           
   485                           ;main.c: 203:             MOVE_Old = 0;
   486  00011E  2A28               	incf	main@posicao^0,f,c
   487                           
   488                           ;main.c: 204:         }
   489  000120  EFCC  F000         	goto	l1590
   490  000124                     l1584:
   491                           
   492                           ;main.c: 205: 
   493  000124  0E00               	movlw	0
   494  000126  6E0B               	movwf	(___awdiv@divisor+1)^0,c
   495  000128  0E03               	movlw	3
   496  00012A  6E0A               	movwf	___awdiv@divisor^0,c
   497  00012C  5028               	movf	main@posicao^0,w,c
   498  00012E  6E08               	movwf	___awdiv@dividend^0,c
   499  000130  6A09               	clrf	(___awdiv@dividend+1)^0,c
   500  000132  BE08               	btfsc	___awdiv@dividend^0,7,c
   501  000134  0609               	decf	(___awdiv@dividend+1)^0,f,c
   502  000136  EC0C  F008         	call	___awdiv	;wreg free
   503  00013A  C008  F010         	movff	?___awdiv,___wmul@multiplier
   504  00013E  C009  F011         	movff	?___awdiv+1,___wmul@multiplier+1
   505  000142  0E00               	movlw	0
   506  000144  6E13               	movwf	(___wmul@multiplicand+1)^0,c
   507  000146  0E03               	movlw	3
   508  000148  6E12               	movwf	___wmul@multiplicand^0,c
   509  00014A  EC3A  F009         	call	___wmul	;wreg free
   510  00014E  0E19               	movlw	low main@marcados
   511  000150  6E16               	movwf	??_main^0,c
   512  000152  0E00               	movlw	high main@marcados
   513  000154  6E17               	movwf	(??_main+1)^0,c
   514  000156  5010               	movf	?___wmul^0,w,c
   515  000158  2616               	addwf	??_main^0,f,c
   516  00015A  5011               	movf	(?___wmul+1)^0,w,c
   517  00015C  2217               	addwfc	(??_main+1)^0,f,c
   518  00015E  5028               	movf	main@posicao^0,w,c
   519  000160  6E08               	movwf	___awmod@dividend^0,c
   520  000162  6A09               	clrf	(___awmod@dividend+1)^0,c
   521  000164  BE08               	btfsc	___awmod@dividend^0,7,c
   522  000166  0609               	decf	(___awmod@dividend+1)^0,f,c
   523  000168  0E00               	movlw	0
   524  00016A  6E0B               	movwf	(___awmod@divisor+1)^0,c
   525  00016C  0E03               	movlw	3
   526  00016E  6E0A               	movwf	___awmod@divisor^0,c
   527  000170  EC6E  F008         	call	___awmod	;wreg free
   528  000174  5008               	movf	?___awmod^0,w,c
   529  000176  2416               	addwf	??_main^0,w,c
   530  000178  6ED9               	movwf	fsr2l,c
   531  00017A  5009               	movf	(?___awmod+1)^0,w,c
   532  00017C  2017               	addwfc	(??_main+1)^0,w,c
   533  00017E  6EDA               	movwf	fsr2h,c
   534  000180  04DE               	decf	postinc2,w,c
   535  000182  A4D8               	btfss	status,2,c
   536  000184  EFC6  F000         	goto	u1271
   537  000188  EFC8  F000         	goto	u1270
   538  00018C                     u1271:
   539  00018C  EFCA  F000         	goto	l1588
   540  000190                     u1270:
   541  000190  EF8F  F000         	goto	l1582
   542  000194                     l1588:
   543                           
   544                           ;main.c: 209: 
   545  000194  0E01               	movlw	1
   546  000196  6E22               	movwf	main@aux^0,c
   547  000198                     l1590:
   548                           
   549                           ;main.c: 204:         }
   550  000198  0422               	decf	main@aux^0,w,c
   551  00019A  A4D8               	btfss	status,2,c
   552  00019C  EFD2  F000         	goto	u1281
   553  0001A0  EFD4  F000         	goto	u1280
   554  0001A4                     u1281:
   555  0001A4  EF92  F000         	goto	l1584
   556  0001A8                     u1280:
   557  0001A8                     
   558                           ;main.c: 215:             {
   559  0001A8  0E00               	movlw	0
   560  0001AA  6E0B               	movwf	(___awdiv@divisor+1)^0,c
   561  0001AC  0E03               	movlw	3
   562  0001AE  6E0A               	movwf	___awdiv@divisor^0,c
   563  0001B0  5028               	movf	main@posicao^0,w,c
   564  0001B2  6E08               	movwf	___awdiv@dividend^0,c
   565  0001B4  6A09               	clrf	(___awdiv@dividend+1)^0,c
   566  0001B6  BE08               	btfsc	___awdiv@dividend^0,7,c
   567  0001B8  0609               	decf	(___awdiv@dividend+1)^0,f,c
   568  0001BA  EC0C  F008         	call	___awdiv	;wreg free
   569  0001BE  C008  F010         	movff	?___awdiv,___wmul@multiplier
   570  0001C2  C009  F011         	movff	?___awdiv+1,___wmul@multiplier+1
   571  0001C6  0E00               	movlw	0
   572  0001C8  6E13               	movwf	(___wmul@multiplicand+1)^0,c
   573  0001CA  0E03               	movlw	3
   574  0001CC  6E12               	movwf	___wmul@multiplicand^0,c
   575  0001CE  EC3A  F009         	call	___wmul	;wreg free
   576  0001D2  0E2F               	movlw	low _cursor
   577  0001D4  6E16               	movwf	??_main^0,c
   578  0001D6  0E00               	movlw	high _cursor
   579  0001D8  6E17               	movwf	(??_main+1)^0,c
   580  0001DA  5010               	movf	?___wmul^0,w,c
   581  0001DC  2616               	addwf	??_main^0,f,c
   582  0001DE  5011               	movf	(?___wmul+1)^0,w,c
   583  0001E0  2217               	addwfc	(??_main+1)^0,f,c
   584  0001E2  5028               	movf	main@posicao^0,w,c
   585  0001E4  6E08               	movwf	___awmod@dividend^0,c
   586  0001E6  6A09               	clrf	(___awmod@dividend+1)^0,c
   587  0001E8  BE08               	btfsc	___awmod@dividend^0,7,c
   588  0001EA  0609               	decf	(___awmod@dividend+1)^0,f,c
   589  0001EC  0E00               	movlw	0
   590  0001EE  6E0B               	movwf	(___awmod@divisor+1)^0,c
   591  0001F0  0E03               	movlw	3
   592  0001F2  6E0A               	movwf	___awmod@divisor^0,c
   593  0001F4  EC6E  F008         	call	___awmod	;wreg free
   594  0001F8  5008               	movf	?___awmod^0,w,c
   595  0001FA  2416               	addwf	??_main^0,w,c
   596  0001FC  6ED9               	movwf	fsr2l,c
   597  0001FE  5009               	movf	(?___awmod+1)^0,w,c
   598  000200  2017               	addwfc	(??_main+1)^0,w,c
   599  000202  6EDA               	movwf	fsr2h,c
   600  000204  0E01               	movlw	1
   601  000206  6EDF               	movwf	indf2,c
   602  000208                     
   603                           ;main.c: 216:                 verde[(posicao)/3][(posicao)%3] = 1;
   604  000208  0E00               	movlw	0
   605  00020A  6E23               	movwf	main@MOVE_Old^0,c
   606  00020C                     l1596:
   607                           
   608                           ;main.c: 219:             }
   609  00020C  B681               	btfsc	129,3,c	;volatile
   610  00020E  EF0B  F001         	goto	u1291
   611  000212  EF0D  F001         	goto	u1290
   612  000216                     u1291:
   613  000216  EF17  F001         	goto	l1602
   614  00021A                     u1290:
   615  00021A  5023               	movf	main@MOVE_Old^0,w,c
   616  00021C  A4D8               	btfss	status,2,c
   617  00021E  EF13  F001         	goto	u1301
   618  000222  EF15  F001         	goto	u1300
   619  000226                     u1301:
   620  000226  EF17  F001         	goto	l1602
   621  00022A                     u1300:
   622  00022A                     
   623                           ;main.c: 220: 
   624  00022A  0E01               	movlw	1
   625  00022C  6E23               	movwf	main@MOVE_Old^0,c
   626  00022E                     l1602:
   627                           
   628                           ;main.c: 224:                 vermelho[(posicao)/3][(posicao)%3] = 1;
   629  00022E  A881               	btfss	129,4,c	;volatile
   630  000230  EF1C  F001         	goto	u1311
   631  000234  EF1E  F001         	goto	u1310
   632  000238                     u1311:
   633  000238  EF42  F003         	goto	l1638
   634  00023C                     u1310:
   635  00023C  0424               	decf	main@SEL_Old^0,w,c
   636  00023E  A4D8               	btfss	status,2,c
   637  000240  EF24  F001         	goto	u1321
   638  000244  EF26  F001         	goto	u1320
   639  000248                     u1321:
   640  000248  EF42  F003         	goto	l1638
   641  00024C                     u1320:
   642  00024C                     
   643                           ;main.c: 225:                 marcados[(posicao)/3][(posicao)%3] = 1;;main.c: 227:      
      +                                 }
   644  00024C  502C               	movf	_cor^0,w,c
   645  00024E  A4D8               	btfss	status,2,c
   646  000250  EF2C  F001         	goto	u1331
   647  000254  EF2E  F001         	goto	u1330
   648  000258                     u1331:
   649  000258  EFFE  F001         	goto	l1616
   650  00025C                     u1330:
   651  00025C  0E00               	movlw	0
   652  00025E  6E0B               	movwf	(___awdiv@divisor+1)^0,c
   653  000260  0E03               	movlw	3
   654  000262  6E0A               	movwf	___awdiv@divisor^0,c
   655  000264  5028               	movf	main@posicao^0,w,c
   656  000266  6E08               	movwf	___awdiv@dividend^0,c
   657  000268  6A09               	clrf	(___awdiv@dividend+1)^0,c
   658  00026A  BE08               	btfsc	___awdiv@dividend^0,7,c
   659  00026C  0609               	decf	(___awdiv@dividend+1)^0,f,c
   660  00026E  EC0C  F008         	call	___awdiv	;wreg free
   661  000272  C008  F010         	movff	?___awdiv,___wmul@multiplier
   662  000276  C009  F011         	movff	?___awdiv+1,___wmul@multiplier+1
   663  00027A  0E00               	movlw	0
   664  00027C  6E13               	movwf	(___wmul@multiplicand+1)^0,c
   665  00027E  0E03               	movlw	3
   666  000280  6E12               	movwf	___wmul@multiplicand^0,c
   667  000282  EC3A  F009         	call	___wmul	;wreg free
   668  000286  0E38               	movlw	low _vermelho
   669  000288  6E16               	movwf	??_main^0,c
   670  00028A  0E00               	movlw	high _vermelho
   671  00028C  6E17               	movwf	(??_main+1)^0,c
   672  00028E  5010               	movf	?___wmul^0,w,c
   673  000290  2616               	addwf	??_main^0,f,c
   674  000292  5011               	movf	(?___wmul+1)^0,w,c
   675  000294  2217               	addwfc	(??_main+1)^0,f,c
   676  000296  5028               	movf	main@posicao^0,w,c
   677  000298  6E08               	movwf	___awmod@dividend^0,c
   678  00029A  6A09               	clrf	(___awmod@dividend+1)^0,c
   679  00029C  BE08               	btfsc	___awmod@dividend^0,7,c
   680  00029E  0609               	decf	(___awmod@dividend+1)^0,f,c
   681  0002A0  0E00               	movlw	0
   682  0002A2  6E0B               	movwf	(___awmod@divisor+1)^0,c
   683  0002A4  0E03               	movlw	3
   684  0002A6  6E0A               	movwf	___awmod@divisor^0,c
   685  0002A8  EC6E  F008         	call	___awmod	;wreg free
   686  0002AC  5008               	movf	?___awmod^0,w,c
   687  0002AE  2416               	addwf	??_main^0,w,c
   688  0002B0  6ED9               	movwf	fsr2l,c
   689  0002B2  5009               	movf	(?___awmod+1)^0,w,c
   690  0002B4  2017               	addwfc	(??_main+1)^0,w,c
   691  0002B6  6EDA               	movwf	fsr2h,c
   692  0002B8  50DF               	movf	indf2,w,c
   693  0002BA  A4D8               	btfss	status,2,c
   694  0002BC  EF62  F001         	goto	u1341
   695  0002C0  EF64  F001         	goto	u1340
   696  0002C4                     u1341:
   697  0002C4  EFFE  F001         	goto	l1616
   698  0002C8                     u1340:
   699  0002C8  0E00               	movlw	0
   700  0002CA  6E0B               	movwf	(___awdiv@divisor+1)^0,c
   701  0002CC  0E03               	movlw	3
   702  0002CE  6E0A               	movwf	___awdiv@divisor^0,c
   703  0002D0  5028               	movf	main@posicao^0,w,c
   704  0002D2  6E08               	movwf	___awdiv@dividend^0,c
   705  0002D4  6A09               	clrf	(___awdiv@dividend+1)^0,c
   706  0002D6  BE08               	btfsc	___awdiv@dividend^0,7,c
   707  0002D8  0609               	decf	(___awdiv@dividend+1)^0,f,c
   708  0002DA  EC0C  F008         	call	___awdiv	;wreg free
   709  0002DE  C008  F010         	movff	?___awdiv,___wmul@multiplier
   710  0002E2  C009  F011         	movff	?___awdiv+1,___wmul@multiplier+1
   711  0002E6  0E00               	movlw	0
   712  0002E8  6E13               	movwf	(___wmul@multiplicand+1)^0,c
   713  0002EA  0E03               	movlw	3
   714  0002EC  6E12               	movwf	___wmul@multiplicand^0,c
   715  0002EE  EC3A  F009         	call	___wmul	;wreg free
   716  0002F2  0E41               	movlw	low _verde
   717  0002F4  6E16               	movwf	??_main^0,c
   718  0002F6  0E00               	movlw	high _verde
   719  0002F8  6E17               	movwf	(??_main+1)^0,c
   720  0002FA  5010               	movf	?___wmul^0,w,c
   721  0002FC  2616               	addwf	??_main^0,f,c
   722  0002FE  5011               	movf	(?___wmul+1)^0,w,c
   723  000300  2217               	addwfc	(??_main+1)^0,f,c
   724  000302  5028               	movf	main@posicao^0,w,c
   725  000304  6E08               	movwf	___awmod@dividend^0,c
   726  000306  6A09               	clrf	(___awmod@dividend+1)^0,c
   727  000308  BE08               	btfsc	___awmod@dividend^0,7,c
   728  00030A  0609               	decf	(___awmod@dividend+1)^0,f,c
   729  00030C  0E00               	movlw	0
   730  00030E  6E0B               	movwf	(___awmod@divisor+1)^0,c
   731  000310  0E03               	movlw	3
   732  000312  6E0A               	movwf	___awmod@divisor^0,c
   733  000314  EC6E  F008         	call	___awmod	;wreg free
   734  000318  5008               	movf	?___awmod^0,w,c
   735  00031A  2416               	addwf	??_main^0,w,c
   736  00031C  6ED9               	movwf	fsr2l,c
   737  00031E  5009               	movf	(?___awmod+1)^0,w,c
   738  000320  2017               	addwfc	(??_main+1)^0,w,c
   739  000322  6EDA               	movwf	fsr2h,c
   740  000324  50DF               	movf	indf2,w,c
   741  000326  A4D8               	btfss	status,2,c
   742  000328  EF98  F001         	goto	u1351
   743  00032C  EF9A  F001         	goto	u1350
   744  000330                     u1351:
   745  000330  EFFE  F001         	goto	l1616
   746  000334                     u1350:
   747  000334                     
   748                           ;main.c: 228: ;main.c: 229:             cursor[(posicao)/3][(posicao)%3] = 0;
   749  000334  0E00               	movlw	0
   750  000336  6E0B               	movwf	(___awdiv@divisor+1)^0,c
   751  000338  0E03               	movlw	3
   752  00033A  6E0A               	movwf	___awdiv@divisor^0,c
   753  00033C  5028               	movf	main@posicao^0,w,c
   754  00033E  6E08               	movwf	___awdiv@dividend^0,c
   755  000340  6A09               	clrf	(___awdiv@dividend+1)^0,c
   756  000342  BE08               	btfsc	___awdiv@dividend^0,7,c
   757  000344  0609               	decf	(___awdiv@dividend+1)^0,f,c
   758  000346  EC0C  F008         	call	___awdiv	;wreg free
   759  00034A  C008  F010         	movff	?___awdiv,___wmul@multiplier
   760  00034E  C009  F011         	movff	?___awdiv+1,___wmul@multiplier+1
   761  000352  0E00               	movlw	0
   762  000354  6E13               	movwf	(___wmul@multiplicand+1)^0,c
   763  000356  0E03               	movlw	3
   764  000358  6E12               	movwf	___wmul@multiplicand^0,c
   765  00035A  EC3A  F009         	call	___wmul	;wreg free
   766  00035E  0E41               	movlw	low _verde
   767  000360  6E16               	movwf	??_main^0,c
   768  000362  0E00               	movlw	high _verde
   769  000364  6E17               	movwf	(??_main+1)^0,c
   770  000366  5010               	movf	?___wmul^0,w,c
   771  000368  2616               	addwf	??_main^0,f,c
   772  00036A  5011               	movf	(?___wmul+1)^0,w,c
   773  00036C  2217               	addwfc	(??_main+1)^0,f,c
   774  00036E  5028               	movf	main@posicao^0,w,c
   775  000370  6E08               	movwf	___awmod@dividend^0,c
   776  000372  6A09               	clrf	(___awmod@dividend+1)^0,c
   777  000374  BE08               	btfsc	___awmod@dividend^0,7,c
   778  000376  0609               	decf	(___awmod@dividend+1)^0,f,c
   779  000378  0E00               	movlw	0
   780  00037A  6E0B               	movwf	(___awmod@divisor+1)^0,c
   781  00037C  0E03               	movlw	3
   782  00037E  6E0A               	movwf	___awmod@divisor^0,c
   783  000380  EC6E  F008         	call	___awmod	;wreg free
   784  000384  5008               	movf	?___awmod^0,w,c
   785  000386  2416               	addwf	??_main^0,w,c
   786  000388  6ED9               	movwf	fsr2l,c
   787  00038A  5009               	movf	(?___awmod+1)^0,w,c
   788  00038C  2017               	addwfc	(??_main+1)^0,w,c
   789  00038E  6EDA               	movwf	fsr2h,c
   790  000390  0E01               	movlw	1
   791  000392  6EDF               	movwf	indf2,c
   792                           
   793                           ;main.c: 230:             posicao++;
   794  000394  0E00               	movlw	0
   795  000396  6E0B               	movwf	(___awdiv@divisor+1)^0,c
   796  000398  0E03               	movlw	3
   797  00039A  6E0A               	movwf	___awdiv@divisor^0,c
   798  00039C  5028               	movf	main@posicao^0,w,c
   799  00039E  6E08               	movwf	___awdiv@dividend^0,c
   800  0003A0  6A09               	clrf	(___awdiv@dividend+1)^0,c
   801  0003A2  BE08               	btfsc	___awdiv@dividend^0,7,c
   802  0003A4  0609               	decf	(___awdiv@dividend+1)^0,f,c
   803  0003A6  EC0C  F008         	call	___awdiv	;wreg free
   804  0003AA  C008  F010         	movff	?___awdiv,___wmul@multiplier
   805  0003AE  C009  F011         	movff	?___awdiv+1,___wmul@multiplier+1
   806  0003B2  0E00               	movlw	0
   807  0003B4  6E13               	movwf	(___wmul@multiplicand+1)^0,c
   808  0003B6  0E03               	movlw	3
   809  0003B8  6E12               	movwf	___wmul@multiplicand^0,c
   810  0003BA  EC3A  F009         	call	___wmul	;wreg free
   811  0003BE  0E19               	movlw	low main@marcados
   812  0003C0  6E16               	movwf	??_main^0,c
   813  0003C2  0E00               	movlw	high main@marcados
   814  0003C4  6E17               	movwf	(??_main+1)^0,c
   815  0003C6  5010               	movf	?___wmul^0,w,c
   816  0003C8  2616               	addwf	??_main^0,f,c
   817  0003CA  5011               	movf	(?___wmul+1)^0,w,c
   818  0003CC  2217               	addwfc	(??_main+1)^0,f,c
   819  0003CE  5028               	movf	main@posicao^0,w,c
   820  0003D0  6E08               	movwf	___awmod@dividend^0,c
   821  0003D2  6A09               	clrf	(___awmod@dividend+1)^0,c
   822  0003D4  BE08               	btfsc	___awmod@dividend^0,7,c
   823  0003D6  0609               	decf	(___awmod@dividend+1)^0,f,c
   824  0003D8  0E00               	movlw	0
   825  0003DA  6E0B               	movwf	(___awmod@divisor+1)^0,c
   826  0003DC  0E03               	movlw	3
   827  0003DE  6E0A               	movwf	___awmod@divisor^0,c
   828  0003E0  EC6E  F008         	call	___awmod	;wreg free
   829  0003E4  5008               	movf	?___awmod^0,w,c
   830  0003E6  2416               	addwf	??_main^0,w,c
   831  0003E8  6ED9               	movwf	fsr2l,c
   832  0003EA  5009               	movf	(?___awmod+1)^0,w,c
   833  0003EC  2017               	addwfc	(??_main+1)^0,w,c
   834  0003EE  6EDA               	movwf	fsr2h,c
   835  0003F0  0E01               	movlw	1
   836  0003F2  6EDF               	movwf	indf2,c
   837  0003F4                     
   838                           ;main.c: 231:             if((posicao) == 9)
   839  0003F4  0E01               	movlw	1
   840  0003F6  6E2C               	movwf	_cor^0,c
   841                           
   842                           ;main.c: 232:                 posicao = 0;
   843  0003F8  EFD4  F002         	goto	l1626
   844  0003FC                     l1616:
   845  0003FC  042C               	decf	_cor^0,w,c
   846  0003FE  A4D8               	btfss	status,2,c
   847  000400  EF04  F002         	goto	u1361
   848  000404  EF06  F002         	goto	u1360
   849  000408                     u1361:
   850  000408  EFD4  F002         	goto	l1626
   851  00040C                     u1360:
   852  00040C  0E00               	movlw	0
   853  00040E  6E0B               	movwf	(___awdiv@divisor+1)^0,c
   854  000410  0E03               	movlw	3
   855  000412  6E0A               	movwf	___awdiv@divisor^0,c
   856  000414  5028               	movf	main@posicao^0,w,c
   857  000416  6E08               	movwf	___awdiv@dividend^0,c
   858  000418  6A09               	clrf	(___awdiv@dividend+1)^0,c
   859  00041A  BE08               	btfsc	___awdiv@dividend^0,7,c
   860  00041C  0609               	decf	(___awdiv@dividend+1)^0,f,c
   861  00041E  EC0C  F008         	call	___awdiv	;wreg free
   862  000422  C008  F010         	movff	?___awdiv,___wmul@multiplier
   863  000426  C009  F011         	movff	?___awdiv+1,___wmul@multiplier+1
   864  00042A  0E00               	movlw	0
   865  00042C  6E13               	movwf	(___wmul@multiplicand+1)^0,c
   866  00042E  0E03               	movlw	3
   867  000430  6E12               	movwf	___wmul@multiplicand^0,c
   868  000432  EC3A  F009         	call	___wmul	;wreg free
   869  000436  0E41               	movlw	low _verde
   870  000438  6E16               	movwf	??_main^0,c
   871  00043A  0E00               	movlw	high _verde
   872  00043C  6E17               	movwf	(??_main+1)^0,c
   873  00043E  5010               	movf	?___wmul^0,w,c
   874  000440  2616               	addwf	??_main^0,f,c
   875  000442  5011               	movf	(?___wmul+1)^0,w,c
   876  000444  2217               	addwfc	(??_main+1)^0,f,c
   877  000446  5028               	movf	main@posicao^0,w,c
   878  000448  6E08               	movwf	___awmod@dividend^0,c
   879  00044A  6A09               	clrf	(___awmod@dividend+1)^0,c
   880  00044C  BE08               	btfsc	___awmod@dividend^0,7,c
   881  00044E  0609               	decf	(___awmod@dividend+1)^0,f,c
   882  000450  0E00               	movlw	0
   883  000452  6E0B               	movwf	(___awmod@divisor+1)^0,c
   884  000454  0E03               	movlw	3
   885  000456  6E0A               	movwf	___awmod@divisor^0,c
   886  000458  EC6E  F008         	call	___awmod	;wreg free
   887  00045C  5008               	movf	?___awmod^0,w,c
   888  00045E  2416               	addwf	??_main^0,w,c
   889  000460  6ED9               	movwf	fsr2l,c
   890  000462  5009               	movf	(?___awmod+1)^0,w,c
   891  000464  2017               	addwfc	(??_main+1)^0,w,c
   892  000466  6EDA               	movwf	fsr2h,c
   893  000468  50DF               	movf	indf2,w,c
   894  00046A  A4D8               	btfss	status,2,c
   895  00046C  EF3A  F002         	goto	u1371
   896  000470  EF3C  F002         	goto	u1370
   897  000474                     u1371:
   898  000474  EFD4  F002         	goto	l1626
   899  000478                     u1370:
   900  000478  0E00               	movlw	0
   901  00047A  6E0B               	movwf	(___awdiv@divisor+1)^0,c
   902  00047C  0E03               	movlw	3
   903  00047E  6E0A               	movwf	___awdiv@divisor^0,c
   904  000480  5028               	movf	main@posicao^0,w,c
   905  000482  6E08               	movwf	___awdiv@dividend^0,c
   906  000484  6A09               	clrf	(___awdiv@dividend+1)^0,c
   907  000486  BE08               	btfsc	___awdiv@dividend^0,7,c
   908  000488  0609               	decf	(___awdiv@dividend+1)^0,f,c
   909  00048A  EC0C  F008         	call	___awdiv	;wreg free
   910  00048E  C008  F010         	movff	?___awdiv,___wmul@multiplier
   911  000492  C009  F011         	movff	?___awdiv+1,___wmul@multiplier+1
   912  000496  0E00               	movlw	0
   913  000498  6E13               	movwf	(___wmul@multiplicand+1)^0,c
   914  00049A  0E03               	movlw	3
   915  00049C  6E12               	movwf	___wmul@multiplicand^0,c
   916  00049E  EC3A  F009         	call	___wmul	;wreg free
   917  0004A2  0E38               	movlw	low _vermelho
   918  0004A4  6E16               	movwf	??_main^0,c
   919  0004A6  0E00               	movlw	high _vermelho
   920  0004A8  6E17               	movwf	(??_main+1)^0,c
   921  0004AA  5010               	movf	?___wmul^0,w,c
   922  0004AC  2616               	addwf	??_main^0,f,c
   923  0004AE  5011               	movf	(?___wmul+1)^0,w,c
   924  0004B0  2217               	addwfc	(??_main+1)^0,f,c
   925  0004B2  5028               	movf	main@posicao^0,w,c
   926  0004B4  6E08               	movwf	___awmod@dividend^0,c
   927  0004B6  6A09               	clrf	(___awmod@dividend+1)^0,c
   928  0004B8  BE08               	btfsc	___awmod@dividend^0,7,c
   929  0004BA  0609               	decf	(___awmod@dividend+1)^0,f,c
   930  0004BC  0E00               	movlw	0
   931  0004BE  6E0B               	movwf	(___awmod@divisor+1)^0,c
   932  0004C0  0E03               	movlw	3
   933  0004C2  6E0A               	movwf	___awmod@divisor^0,c
   934  0004C4  EC6E  F008         	call	___awmod	;wreg free
   935  0004C8  5008               	movf	?___awmod^0,w,c
   936  0004CA  2416               	addwf	??_main^0,w,c
   937  0004CC  6ED9               	movwf	fsr2l,c
   938  0004CE  5009               	movf	(?___awmod+1)^0,w,c
   939  0004D0  2017               	addwfc	(??_main+1)^0,w,c
   940  0004D2  6EDA               	movwf	fsr2h,c
   941  0004D4  50DF               	movf	indf2,w,c
   942  0004D6  A4D8               	btfss	status,2,c
   943  0004D8  EF70  F002         	goto	u1381
   944  0004DC  EF72  F002         	goto	u1380
   945  0004E0                     u1381:
   946  0004E0  EFD4  F002         	goto	l1626
   947  0004E4                     u1380:
   948  0004E4                     
   949                           ;main.c: 236:         };main.c: 237: 
   950  0004E4  0E00               	movlw	0
   951  0004E6  6E0B               	movwf	(___awdiv@divisor+1)^0,c
   952  0004E8  0E03               	movlw	3
   953  0004EA  6E0A               	movwf	___awdiv@divisor^0,c
   954  0004EC  5028               	movf	main@posicao^0,w,c
   955  0004EE  6E08               	movwf	___awdiv@dividend^0,c
   956  0004F0  6A09               	clrf	(___awdiv@dividend+1)^0,c
   957  0004F2  BE08               	btfsc	___awdiv@dividend^0,7,c
   958  0004F4  0609               	decf	(___awdiv@dividend+1)^0,f,c
   959  0004F6  EC0C  F008         	call	___awdiv	;wreg free
   960  0004FA  C008  F010         	movff	?___awdiv,___wmul@multiplier
   961  0004FE  C009  F011         	movff	?___awdiv+1,___wmul@multiplier+1
   962  000502  0E00               	movlw	0
   963  000504  6E13               	movwf	(___wmul@multiplicand+1)^0,c
   964  000506  0E03               	movlw	3
   965  000508  6E12               	movwf	___wmul@multiplicand^0,c
   966  00050A  EC3A  F009         	call	___wmul	;wreg free
   967  00050E  0E38               	movlw	low _vermelho
   968  000510  6E16               	movwf	??_main^0,c
   969  000512  0E00               	movlw	high _vermelho
   970  000514  6E17               	movwf	(??_main+1)^0,c
   971  000516  5010               	movf	?___wmul^0,w,c
   972  000518  2616               	addwf	??_main^0,f,c
   973  00051A  5011               	movf	(?___wmul+1)^0,w,c
   974  00051C  2217               	addwfc	(??_main+1)^0,f,c
   975  00051E  5028               	movf	main@posicao^0,w,c
   976  000520  6E08               	movwf	___awmod@dividend^0,c
   977  000522  6A09               	clrf	(___awmod@dividend+1)^0,c
   978  000524  BE08               	btfsc	___awmod@dividend^0,7,c
   979  000526  0609               	decf	(___awmod@dividend+1)^0,f,c
   980  000528  0E00               	movlw	0
   981  00052A  6E0B               	movwf	(___awmod@divisor+1)^0,c
   982  00052C  0E03               	movlw	3
   983  00052E  6E0A               	movwf	___awmod@divisor^0,c
   984  000530  EC6E  F008         	call	___awmod	;wreg free
   985  000534  5008               	movf	?___awmod^0,w,c
   986  000536  2416               	addwf	??_main^0,w,c
   987  000538  6ED9               	movwf	fsr2l,c
   988  00053A  5009               	movf	(?___awmod+1)^0,w,c
   989  00053C  2017               	addwfc	(??_main+1)^0,w,c
   990  00053E  6EDA               	movwf	fsr2h,c
   991  000540  0E01               	movlw	1
   992  000542  6EDF               	movwf	indf2,c
   993                           
   994                           ;main.c: 238:         if(PORTBbits.RB4 == 0 && SEL_Old == 0)
   995  000544  0E00               	movlw	0
   996  000546  6E0B               	movwf	(___awdiv@divisor+1)^0,c
   997  000548  0E03               	movlw	3
   998  00054A  6E0A               	movwf	___awdiv@divisor^0,c
   999  00054C  5028               	movf	main@posicao^0,w,c
  1000  00054E  6E08               	movwf	___awdiv@dividend^0,c
  1001  000550  6A09               	clrf	(___awdiv@dividend+1)^0,c
  1002  000552  BE08               	btfsc	___awdiv@dividend^0,7,c
  1003  000554  0609               	decf	(___awdiv@dividend+1)^0,f,c
  1004  000556  EC0C  F008         	call	___awdiv	;wreg free
  1005  00055A  C008  F010         	movff	?___awdiv,___wmul@multiplier
  1006  00055E  C009  F011         	movff	?___awdiv+1,___wmul@multiplier+1
  1007  000562  0E00               	movlw	0
  1008  000564  6E13               	movwf	(___wmul@multiplicand+1)^0,c
  1009  000566  0E03               	movlw	3
  1010  000568  6E12               	movwf	___wmul@multiplicand^0,c
  1011  00056A  EC3A  F009         	call	___wmul	;wreg free
  1012  00056E  0E19               	movlw	low main@marcados
  1013  000570  6E16               	movwf	??_main^0,c
  1014  000572  0E00               	movlw	high main@marcados
  1015  000574  6E17               	movwf	(??_main+1)^0,c
  1016  000576  5010               	movf	?___wmul^0,w,c
  1017  000578  2616               	addwf	??_main^0,f,c
  1018  00057A  5011               	movf	(?___wmul+1)^0,w,c
  1019  00057C  2217               	addwfc	(??_main+1)^0,f,c
  1020  00057E  5028               	movf	main@posicao^0,w,c
  1021  000580  6E08               	movwf	___awmod@dividend^0,c
  1022  000582  6A09               	clrf	(___awmod@dividend+1)^0,c
  1023  000584  BE08               	btfsc	___awmod@dividend^0,7,c
  1024  000586  0609               	decf	(___awmod@dividend+1)^0,f,c
  1025  000588  0E00               	movlw	0
  1026  00058A  6E0B               	movwf	(___awmod@divisor+1)^0,c
  1027  00058C  0E03               	movlw	3
  1028  00058E  6E0A               	movwf	___awmod@divisor^0,c
  1029  000590  EC6E  F008         	call	___awmod	;wreg free
  1030  000594  5008               	movf	?___awmod^0,w,c
  1031  000596  2416               	addwf	??_main^0,w,c
  1032  000598  6ED9               	movwf	fsr2l,c
  1033  00059A  5009               	movf	(?___awmod+1)^0,w,c
  1034  00059C  2017               	addwfc	(??_main+1)^0,w,c
  1035  00059E  6EDA               	movwf	fsr2h,c
  1036  0005A0  0E01               	movlw	1
  1037  0005A2  6EDF               	movwf	indf2,c
  1038  0005A4                     
  1039                           ;main.c: 239: 
  1040  0005A4  0E00               	movlw	0
  1041  0005A6  6E2C               	movwf	_cor^0,c
  1042  0005A8                     l1626:
  1043                           
  1044                           ;main.c: 242:         if(testa_ganhou(verde))
  1045  0005A8  0E00               	movlw	0
  1046  0005AA  6E0B               	movwf	(___awdiv@divisor+1)^0,c
  1047  0005AC  0E03               	movlw	3
  1048  0005AE  6E0A               	movwf	___awdiv@divisor^0,c
  1049  0005B0  5028               	movf	main@posicao^0,w,c
  1050  0005B2  6E08               	movwf	___awdiv@dividend^0,c
  1051  0005B4  6A09               	clrf	(___awdiv@dividend+1)^0,c
  1052  0005B6  BE08               	btfsc	___awdiv@dividend^0,7,c
  1053  0005B8  0609               	decf	(___awdiv@dividend+1)^0,f,c
  1054  0005BA  EC0C  F008         	call	___awdiv	;wreg free
  1055  0005BE  C008  F010         	movff	?___awdiv,___wmul@multiplier
  1056  0005C2  C009  F011         	movff	?___awdiv+1,___wmul@multiplier+1
  1057  0005C6  0E00               	movlw	0
  1058  0005C8  6E13               	movwf	(___wmul@multiplicand+1)^0,c
  1059  0005CA  0E03               	movlw	3
  1060  0005CC  6E12               	movwf	___wmul@multiplicand^0,c
  1061  0005CE  EC3A  F009         	call	___wmul	;wreg free
  1062  0005D2  0E2F               	movlw	low _cursor
  1063  0005D4  6E16               	movwf	??_main^0,c
  1064  0005D6  0E00               	movlw	high _cursor
  1065  0005D8  6E17               	movwf	(??_main+1)^0,c
  1066  0005DA  5010               	movf	?___wmul^0,w,c
  1067  0005DC  2616               	addwf	??_main^0,f,c
  1068  0005DE  5011               	movf	(?___wmul+1)^0,w,c
  1069  0005E0  2217               	addwfc	(??_main+1)^0,f,c
  1070  0005E2  5028               	movf	main@posicao^0,w,c
  1071  0005E4  6E08               	movwf	___awmod@dividend^0,c
  1072  0005E6  6A09               	clrf	(___awmod@dividend+1)^0,c
  1073  0005E8  BE08               	btfsc	___awmod@dividend^0,7,c
  1074  0005EA  0609               	decf	(___awmod@dividend+1)^0,f,c
  1075  0005EC  0E00               	movlw	0
  1076  0005EE  6E0B               	movwf	(___awmod@divisor+1)^0,c
  1077  0005F0  0E03               	movlw	3
  1078  0005F2  6E0A               	movwf	___awmod@divisor^0,c
  1079  0005F4  EC6E  F008         	call	___awmod	;wreg free
  1080  0005F8  5008               	movf	?___awmod^0,w,c
  1081  0005FA  2416               	addwf	??_main^0,w,c
  1082  0005FC  6ED9               	movwf	fsr2l,c
  1083  0005FE  5009               	movf	(?___awmod+1)^0,w,c
  1084  000600  2017               	addwfc	(??_main+1)^0,w,c
  1085  000602  6EDA               	movwf	fsr2h,c
  1086  000604  0E00               	movlw	0
  1087  000606  6EDF               	movwf	indf2,c
  1088  000608                     
  1089                           ;main.c: 243:         {
  1090  000608  2A28               	incf	main@posicao^0,f,c
  1091  00060A                     
  1092                           ;main.c: 244:             limpa_matriz(vermelho);
  1093  00060A  0E09               	movlw	9
  1094  00060C  1828               	xorwf	main@posicao^0,w,c
  1095  00060E  A4D8               	btfss	status,2,c
  1096  000610  EF0C  F003         	goto	u1391
  1097  000614  EF0E  F003         	goto	u1390
  1098  000618                     u1391:
  1099  000618  EF10  F003         	goto	l1634
  1100  00061C                     u1390:
  1101  00061C                     
  1102                           ;main.c: 245:             limpa_matriz(verde);
  1103  00061C  0E00               	movlw	0
  1104  00061E  6E28               	movwf	main@posicao^0,c
  1105  000620                     l1634:
  1106                           
  1107                           ;main.c: 246:             limpa_matriz(cursor);
  1108  000620  0E00               	movlw	0
  1109  000622  6E0B               	movwf	(___awdiv@divisor+1)^0,c
  1110  000624  0E03               	movlw	3
  1111  000626  6E0A               	movwf	___awdiv@divisor^0,c
  1112  000628  5028               	movf	main@posicao^0,w,c
  1113  00062A  6E08               	movwf	___awdiv@dividend^0,c
  1114  00062C  6A09               	clrf	(___awdiv@dividend+1)^0,c
  1115  00062E  BE08               	btfsc	___awdiv@dividend^0,7,c
  1116  000630  0609               	decf	(___awdiv@dividend+1)^0,f,c
  1117  000632  EC0C  F008         	call	___awdiv	;wreg free
  1118  000636  C008  F010         	movff	?___awdiv,___wmul@multiplier
  1119  00063A  C009  F011         	movff	?___awdiv+1,___wmul@multiplier+1
  1120  00063E  0E00               	movlw	0
  1121  000640  6E13               	movwf	(___wmul@multiplicand+1)^0,c
  1122  000642  0E03               	movlw	3
  1123  000644  6E12               	movwf	___wmul@multiplicand^0,c
  1124  000646  EC3A  F009         	call	___wmul	;wreg free
  1125  00064A  0E2F               	movlw	low _cursor
  1126  00064C  6E16               	movwf	??_main^0,c
  1127  00064E  0E00               	movlw	high _cursor
  1128  000650  6E17               	movwf	(??_main+1)^0,c
  1129  000652  5010               	movf	?___wmul^0,w,c
  1130  000654  2616               	addwf	??_main^0,f,c
  1131  000656  5011               	movf	(?___wmul+1)^0,w,c
  1132  000658  2217               	addwfc	(??_main+1)^0,f,c
  1133  00065A  5028               	movf	main@posicao^0,w,c
  1134  00065C  6E08               	movwf	___awmod@dividend^0,c
  1135  00065E  6A09               	clrf	(___awmod@dividend+1)^0,c
  1136  000660  BE08               	btfsc	___awmod@dividend^0,7,c
  1137  000662  0609               	decf	(___awmod@dividend+1)^0,f,c
  1138  000664  0E00               	movlw	0
  1139  000666  6E0B               	movwf	(___awmod@divisor+1)^0,c
  1140  000668  0E03               	movlw	3
  1141  00066A  6E0A               	movwf	___awmod@divisor^0,c
  1142  00066C  EC6E  F008         	call	___awmod	;wreg free
  1143  000670  5008               	movf	?___awmod^0,w,c
  1144  000672  2416               	addwf	??_main^0,w,c
  1145  000674  6ED9               	movwf	fsr2l,c
  1146  000676  5009               	movf	(?___awmod+1)^0,w,c
  1147  000678  2017               	addwfc	(??_main+1)^0,w,c
  1148  00067A  6EDA               	movwf	fsr2h,c
  1149  00067C  0E01               	movlw	1
  1150  00067E  6EDF               	movwf	indf2,c
  1151  000680                     
  1152                           ;main.c: 248:             pontuacao_verde++;
  1153  000680  0E00               	movlw	0
  1154  000682  6E24               	movwf	main@SEL_Old^0,c
  1155  000684                     l1638:
  1156                           
  1157                           ;main.c: 251:             for(i = 0; i < pontuacao_verde; i++)
  1158  000684  B881               	btfsc	129,4,c	;volatile
  1159  000686  EF47  F003         	goto	u1401
  1160  00068A  EF49  F003         	goto	u1400
  1161  00068E                     u1401:
  1162  00068E  EF53  F003         	goto	l1644
  1163  000692                     u1400:
  1164  000692  5024               	movf	main@SEL_Old^0,w,c
  1165  000694  A4D8               	btfss	status,2,c
  1166  000696  EF4F  F003         	goto	u1411
  1167  00069A  EF51  F003         	goto	u1410
  1168  00069E                     u1411:
  1169  00069E  EF53  F003         	goto	l1644
  1170  0006A2                     u1410:
  1171  0006A2                     
  1172                           ;main.c: 253:                 verde[i/3][i%3] = 1;
  1173  0006A2  0E01               	movlw	1
  1174  0006A4  6E24               	movwf	main@SEL_Old^0,c
  1175  0006A6                     l1644:
  1176                           
  1177                           ;main.c: 255:             }
  1178  0006A6  0E41               	movlw	low _verde
  1179  0006A8  6E08               	movwf	testa_ganhou@teste^0,c
  1180  0006AA  0E00               	movlw	high _verde
  1181  0006AC  6E09               	movwf	(testa_ganhou@teste+1)^0,c
  1182  0006AE  EC71  F005         	call	_testa_ganhou	;wreg free
  1183  0006B2  0900               	iorlw	0
  1184  0006B4  B4D8               	btfsc	status,2,c
  1185  0006B6  EF5F  F003         	goto	u1421
  1186  0006BA  EF61  F003         	goto	u1420
  1187  0006BE                     u1421:
  1188  0006BE  EF41  F004         	goto	l1694
  1189  0006C2                     u1420:
  1190  0006C2                     
  1191                           ;main.c: 256:             _delay((unsigned long)((1000)*(16000000/4000.0)));;main.c: 257
      +                          : 
  1192  0006C2  0E38               	movlw	low _vermelho
  1193  0006C4  6E08               	movwf	limpa_matriz@matriz^0,c
  1194  0006C6  0E00               	movlw	high _vermelho
  1195  0006C8  6E09               	movwf	(limpa_matriz@matriz+1)^0,c
  1196  0006CA  EC11  F009         	call	_limpa_matriz	;wreg free
  1197                           
  1198                           ;main.c: 258:             if(pontuacao_verde == 9)
  1199  0006CE  0E41               	movlw	low _verde
  1200  0006D0  6E08               	movwf	limpa_matriz@matriz^0,c
  1201  0006D2  0E00               	movlw	high _verde
  1202  0006D4  6E09               	movwf	(limpa_matriz@matriz+1)^0,c
  1203  0006D6  EC11  F009         	call	_limpa_matriz	;wreg free
  1204                           
  1205                           ;main.c: 259:             {
  1206  0006DA  0E2F               	movlw	low _cursor
  1207  0006DC  6E08               	movwf	limpa_matriz@matriz^0,c
  1208  0006DE  0E00               	movlw	high _cursor
  1209  0006E0  6E09               	movwf	(limpa_matriz@matriz+1)^0,c
  1210  0006E2  EC11  F009         	call	_limpa_matriz	;wreg free
  1211                           
  1212                           ;main.c: 260:                 for(i = pontuacao_verde+1; i > 0; i--)
  1213  0006E6  0E19               	movlw	low main@marcados
  1214  0006E8  6E08               	movwf	limpa_matriz@matriz^0,c
  1215  0006EA  0E00               	movlw	high main@marcados
  1216  0006EC  6E09               	movwf	(limpa_matriz@matriz+1)^0,c
  1217  0006EE  EC11  F009         	call	_limpa_matriz	;wreg free
  1218  0006F2                     
  1219                           ;main.c: 261:                 {
  1220  0006F2  2A26               	incf	main@pontuacao_verde^0,f,c
  1221  0006F4                     
  1222                           ;main.c: 262:                     verde[(i-1)/3][(i-1)%3] = 0;
  1223  0006F4  0E00               	movlw	0
  1224  0006F6  6E2C               	movwf	_cor^0,c
  1225  0006F8                     
  1226                           ;main.c: 264:                 }
  1227  0006F8  0E00               	movlw	0
  1228  0006FA  6E27               	movwf	main@i^0,c
  1229  0006FC  EFB9  F003         	goto	l1660
  1230  000700                     l1654:
  1231                           
  1232                           ;main.c: 265:                 pontuacao_vermelho = 0;;main.c: 266:                 pontu
      +                          acao_verde = 0;
  1233  000700  0E00               	movlw	0
  1234  000702  6E0B               	movwf	(___awdiv@divisor+1)^0,c
  1235  000704  0E03               	movlw	3
  1236  000706  6E0A               	movwf	___awdiv@divisor^0,c
  1237  000708  C027  F008         	movff	main@i,___awdiv@dividend
  1238  00070C  6A09               	clrf	(___awdiv@dividend+1)^0,c
  1239  00070E  EC0C  F008         	call	___awdiv	;wreg free
  1240  000712  C008  F010         	movff	?___awdiv,___wmul@multiplier
  1241  000716  C009  F011         	movff	?___awdiv+1,___wmul@multiplier+1
  1242  00071A  0E00               	movlw	0
  1243  00071C  6E13               	movwf	(___wmul@multiplicand+1)^0,c
  1244  00071E  0E03               	movlw	3
  1245  000720  6E12               	movwf	___wmul@multiplicand^0,c
  1246  000722  EC3A  F009         	call	___wmul	;wreg free
  1247  000726  0E41               	movlw	low _verde
  1248  000728  6E16               	movwf	??_main^0,c
  1249  00072A  0E00               	movlw	high _verde
  1250  00072C  6E17               	movwf	(??_main+1)^0,c
  1251  00072E  5010               	movf	?___wmul^0,w,c
  1252  000730  2616               	addwf	??_main^0,f,c
  1253  000732  5011               	movf	(?___wmul+1)^0,w,c
  1254  000734  2217               	addwfc	(??_main+1)^0,f,c
  1255  000736  C027  F008         	movff	main@i,___awmod@dividend
  1256  00073A  6A09               	clrf	(___awmod@dividend+1)^0,c
  1257  00073C  0E00               	movlw	0
  1258  00073E  6E0B               	movwf	(___awmod@divisor+1)^0,c
  1259  000740  0E03               	movlw	3
  1260  000742  6E0A               	movwf	___awmod@divisor^0,c
  1261  000744  EC6E  F008         	call	___awmod	;wreg free
  1262  000748  5008               	movf	?___awmod^0,w,c
  1263  00074A  2416               	addwf	??_main^0,w,c
  1264  00074C  6ED9               	movwf	fsr2l,c
  1265  00074E  5009               	movf	(?___awmod+1)^0,w,c
  1266  000750  2017               	addwfc	(??_main+1)^0,w,c
  1267  000752  6EDA               	movwf	fsr2h,c
  1268  000754  0E01               	movlw	1
  1269  000756  6EDF               	movwf	indf2,c
  1270  000758                     
  1271                           ;main.c: 267:             }
  1272  000758  0E05               	movlw	5
  1273  00075A  6E17               	movwf	(??_main+1)^0,c
  1274  00075C  0E0F               	movlw	15
  1275  00075E  6E16               	movwf	??_main^0,c
  1276  000760  0EF1               	movlw	241
  1277  000762                     u1517:
  1278  000762  2EE8               	decfsz	wreg,f,c
  1279  000764  D7FE               	bra	u1517
  1280  000766  2E16               	decfsz	??_main^0,f,c
  1281  000768  D7FC               	bra	u1517
  1282  00076A  2E17               	decfsz	(??_main+1)^0,f,c
  1283  00076C  D7FA               	bra	u1517
  1284  00076E  F000               	nop	
  1285  000770                     
  1286                           ;main.c: 268:             _delay((unsigned long)((500)*(16000000/4000.0)));
  1287  000770  2A27               	incf	main@i^0,f,c
  1288  000772                     l1660:
  1289  000772  5026               	movf	main@pontuacao_verde^0,w,c
  1290  000774  5C27               	subwf	main@i^0,w,c
  1291  000776  A0D8               	btfss	status,0,c
  1292  000778  EFC0  F003         	goto	u1431
  1293  00077C  EFC2  F003         	goto	u1430
  1294  000780                     u1431:
  1295  000780  EF80  F003         	goto	l1654
  1296  000784                     u1430:
  1297  000784                     
  1298                           ;main.c: 269: 
  1299  000784  0E15               	movlw	21
  1300  000786  6E17               	movwf	(??_main+1)^0,c
  1301  000788  0E4B               	movlw	75
  1302  00078A  6E16               	movwf	??_main^0,c
  1303  00078C  0EBE               	movlw	190
  1304  00078E                     u1527:
  1305  00078E  2EE8               	decfsz	wreg,f,c
  1306  000790  D7FE               	bra	u1527
  1307  000792  2E16               	decfsz	??_main^0,f,c
  1308  000794  D7FC               	bra	u1527
  1309  000796  2E17               	decfsz	(??_main+1)^0,f,c
  1310  000798  D7FA               	bra	u1527
  1311  00079A  D000               	nop2	
  1312  00079C                     
  1313                           ;main.c: 271:             linha = 0;
  1314  00079C  0E09               	movlw	9
  1315  00079E  1826               	xorwf	main@pontuacao_verde^0,w,c
  1316  0007A0  A4D8               	btfss	status,2,c
  1317  0007A2  EFD5  F003         	goto	u1441
  1318  0007A6  EFD7  F003         	goto	u1440
  1319  0007AA                     u1441:
  1320  0007AA  EF28  F004         	goto	l1682
  1321  0007AE                     u1440:
  1322  0007AE                     
  1323                           ;main.c: 272:             posicao = 0;;main.c: 273:             cursor[0][0] = 1;
  1324  0007AE  2826               	incf	main@pontuacao_verde^0,w,c
  1325  0007B0  6E27               	movwf	main@i^0,c
  1326  0007B2                     l1668:
  1327  0007B2  5027               	movf	main@i^0,w,c
  1328  0007B4  A4D8               	btfss	status,2,c
  1329  0007B6  EFDF  F003         	goto	u1451
  1330  0007BA  EFE1  F003         	goto	u1450
  1331  0007BE                     u1451:
  1332  0007BE  EFE3  F003         	goto	l1672
  1333  0007C2                     u1450:
  1334  0007C2  EF24  F004         	goto	l1680
  1335  0007C6                     l1672:
  1336                           
  1337                           ;main.c: 274:             cor = 1;;main.c: 275:         }
  1338  0007C6  0E00               	movlw	0
  1339  0007C8  6E0B               	movwf	(___awdiv@divisor+1)^0,c
  1340  0007CA  0E03               	movlw	3
  1341  0007CC  6E0A               	movwf	___awdiv@divisor^0,c
  1342  0007CE  0EFF               	movlw	255
  1343  0007D0  2427               	addwf	main@i^0,w,c
  1344  0007D2  6E08               	movwf	___awdiv@dividend^0,c
  1345  0007D4  6A09               	clrf	(___awdiv@dividend+1)^0,c
  1346  0007D6  0EFF               	movlw	255
  1347  0007D8  2209               	addwfc	(___awdiv@dividend+1)^0,f,c
  1348  0007DA  EC0C  F008         	call	___awdiv	;wreg free
  1349  0007DE  C008  F010         	movff	?___awdiv,___wmul@multiplier
  1350  0007E2  C009  F011         	movff	?___awdiv+1,___wmul@multiplier+1
  1351  0007E6  0E00               	movlw	0
  1352  0007E8  6E13               	movwf	(___wmul@multiplicand+1)^0,c
  1353  0007EA  0E03               	movlw	3
  1354  0007EC  6E12               	movwf	___wmul@multiplicand^0,c
  1355  0007EE  EC3A  F009         	call	___wmul	;wreg free
  1356  0007F2  0E41               	movlw	low _verde
  1357  0007F4  6E16               	movwf	??_main^0,c
  1358  0007F6  0E00               	movlw	high _verde
  1359  0007F8  6E17               	movwf	(??_main+1)^0,c
  1360  0007FA  5010               	movf	?___wmul^0,w,c
  1361  0007FC  2616               	addwf	??_main^0,f,c
  1362  0007FE  5011               	movf	(?___wmul+1)^0,w,c
  1363  000800  2217               	addwfc	(??_main+1)^0,f,c
  1364  000802  0EFF               	movlw	255
  1365  000804  2427               	addwf	main@i^0,w,c
  1366  000806  6E08               	movwf	___awmod@dividend^0,c
  1367  000808  6A09               	clrf	(___awmod@dividend+1)^0,c
  1368  00080A  0EFF               	movlw	255
  1369  00080C  2209               	addwfc	(___awmod@dividend+1)^0,f,c
  1370  00080E  0E00               	movlw	0
  1371  000810  6E0B               	movwf	(___awmod@divisor+1)^0,c
  1372  000812  0E03               	movlw	3
  1373  000814  6E0A               	movwf	___awmod@divisor^0,c
  1374  000816  EC6E  F008         	call	___awmod	;wreg free
  1375  00081A  5008               	movf	?___awmod^0,w,c
  1376  00081C  2416               	addwf	??_main^0,w,c
  1377  00081E  6ED9               	movwf	fsr2l,c
  1378  000820  5009               	movf	(?___awmod+1)^0,w,c
  1379  000822  2017               	addwfc	(??_main+1)^0,w,c
  1380  000824  6EDA               	movwf	fsr2h,c
  1381  000826  0E00               	movlw	0
  1382  000828  6EDF               	movwf	indf2,c
  1383  00082A                     
  1384                           ;main.c: 276: 
  1385  00082A  0E03               	movlw	3
  1386  00082C  6E17               	movwf	(??_main+1)^0,c
  1387  00082E  0E08               	movlw	8
  1388  000830  6E16               	movwf	??_main^0,c
  1389  000832  0E77               	movlw	119
  1390  000834                     u1537:
  1391  000834  2EE8               	decfsz	wreg,f,c
  1392  000836  D7FE               	bra	u1537
  1393  000838  2E16               	decfsz	??_main^0,f,c
  1394  00083A  D7FC               	bra	u1537
  1395  00083C  2E17               	decfsz	(??_main+1)^0,f,c
  1396  00083E  D7FA               	bra	u1537
  1397  000840  F000               	nop	
  1398  000842                     
  1399                           ;main.c: 277: 
  1400  000842  0627               	decf	main@i^0,f,c
  1401  000844  EFD9  F003         	goto	l1668
  1402  000848                     l1680:
  1403                           
  1404                           ;main.c: 278: 
  1405  000848  0E00               	movlw	0
  1406  00084A  6E25               	movwf	main@pontuacao_vermelho^0,c
  1407                           
  1408                           ;main.c: 279:         if(testa_ganhou(vermelho))
  1409  00084C  0E00               	movlw	0
  1410  00084E  6E26               	movwf	main@pontuacao_verde^0,c
  1411  000850                     l1682:
  1412                           
  1413                           ;main.c: 281:             limpa_matriz(vermelho);
  1414  000850  0E0B               	movlw	11
  1415  000852  6E17               	movwf	(??_main+1)^0,c
  1416  000854  0E26               	movlw	38
  1417  000856  6E16               	movwf	??_main^0,c
  1418  000858  0E5E               	movlw	94
  1419  00085A                     u1547:
  1420  00085A  2EE8               	decfsz	wreg,f,c
  1421  00085C  D7FE               	bra	u1547
  1422  00085E  2E16               	decfsz	??_main^0,f,c
  1423  000860  D7FC               	bra	u1547
  1424  000862  2E17               	decfsz	(??_main+1)^0,f,c
  1425  000864  D7FA               	bra	u1547
  1426  000866                     
  1427                           ;main.c: 283:             limpa_matriz(cursor);
  1428  000866  0E41               	movlw	low _verde
  1429  000868  6E08               	movwf	limpa_matriz@matriz^0,c
  1430  00086A  0E00               	movlw	high _verde
  1431  00086C  6E09               	movwf	(limpa_matriz@matriz+1)^0,c
  1432  00086E  EC11  F009         	call	_limpa_matriz	;wreg free
  1433  000872                     
  1434                           ;main.c: 284:             limpa_matriz(marcados);
  1435  000872  0E00               	movlw	0
  1436  000874  6E2E               	movwf	_linha^0,c
  1437  000876                     
  1438                           ;main.c: 285:             pontuacao_vermelho++;
  1439  000876  0E00               	movlw	0
  1440  000878  6E28               	movwf	main@posicao^0,c
  1441  00087A                     
  1442                           ;main.c: 286:             cor = 1;
  1443  00087A  0E01               	movlw	1
  1444  00087C  6E2F               	movwf	_cursor^0,c
  1445  00087E                     
  1446                           ;main.c: 287: 
  1447  00087E  0E01               	movlw	1
  1448  000880  6E2C               	movwf	_cor^0,c
  1449  000882                     l1694:
  1450                           
  1451                           ;main.c: 292:             }
  1452  000882  0E38               	movlw	low _vermelho
  1453  000884  6E08               	movwf	testa_ganhou@teste^0,c
  1454  000886  0E00               	movlw	high _vermelho
  1455  000888  6E09               	movwf	(testa_ganhou@teste+1)^0,c
  1456  00088A  EC71  F005         	call	_testa_ganhou	;wreg free
  1457  00088E  0900               	iorlw	0
  1458  000890  B4D8               	btfsc	status,2,c
  1459  000892  EF4D  F004         	goto	u1461
  1460  000896  EF4F  F004         	goto	u1460
  1461  00089A                     u1461:
  1462  00089A  EF2F  F005         	goto	l1744
  1463  00089E                     u1460:
  1464  00089E                     
  1465                           ;main.c: 293:             _delay((unsigned long)((1000)*(16000000/4000.0)));;main.c: 294
      +                          : 
  1466  00089E  0E38               	movlw	low _vermelho
  1467  0008A0  6E08               	movwf	limpa_matriz@matriz^0,c
  1468  0008A2  0E00               	movlw	high _vermelho
  1469  0008A4  6E09               	movwf	(limpa_matriz@matriz+1)^0,c
  1470  0008A6  EC11  F009         	call	_limpa_matriz	;wreg free
  1471                           
  1472                           ;main.c: 295:             if(pontuacao_vermelho == 9)
  1473  0008AA  0E41               	movlw	low _verde
  1474  0008AC  6E08               	movwf	limpa_matriz@matriz^0,c
  1475  0008AE  0E00               	movlw	high _verde
  1476  0008B0  6E09               	movwf	(limpa_matriz@matriz+1)^0,c
  1477  0008B2  EC11  F009         	call	_limpa_matriz	;wreg free
  1478                           
  1479                           ;main.c: 296:             {
  1480  0008B6  0E2F               	movlw	low _cursor
  1481  0008B8  6E08               	movwf	limpa_matriz@matriz^0,c
  1482  0008BA  0E00               	movlw	high _cursor
  1483  0008BC  6E09               	movwf	(limpa_matriz@matriz+1)^0,c
  1484  0008BE  EC11  F009         	call	_limpa_matriz	;wreg free
  1485                           
  1486                           ;main.c: 297:                 for(i = pontuacao_vermelho+1; i > 0; i--)
  1487  0008C2  0E19               	movlw	low main@marcados
  1488  0008C4  6E08               	movwf	limpa_matriz@matriz^0,c
  1489  0008C6  0E00               	movlw	high main@marcados
  1490  0008C8  6E09               	movwf	(limpa_matriz@matriz+1)^0,c
  1491  0008CA  EC11  F009         	call	_limpa_matriz	;wreg free
  1492  0008CE                     
  1493                           ;main.c: 298:                 {
  1494  0008CE  2A25               	incf	main@pontuacao_vermelho^0,f,c
  1495  0008D0                     
  1496                           ;main.c: 299:                     vermelho[(i-1)/3][(i-1)%3] = 0;
  1497  0008D0  0E01               	movlw	1
  1498  0008D2  6E2C               	movwf	_cor^0,c
  1499  0008D4                     
  1500                           ;main.c: 301:                 }
  1501  0008D4  0E00               	movlw	0
  1502  0008D6  6E27               	movwf	main@i^0,c
  1503  0008D8  EFA7  F004         	goto	l1710
  1504  0008DC                     l1704:
  1505                           
  1506                           ;main.c: 302:                 pontuacao_vermelho = 0;;main.c: 303:                 pontu
      +                          acao_verde = 0;
  1507  0008DC  0E00               	movlw	0
  1508  0008DE  6E0B               	movwf	(___awdiv@divisor+1)^0,c
  1509  0008E0  0E03               	movlw	3
  1510  0008E2  6E0A               	movwf	___awdiv@divisor^0,c
  1511  0008E4  C027  F008         	movff	main@i,___awdiv@dividend
  1512  0008E8  6A09               	clrf	(___awdiv@dividend+1)^0,c
  1513  0008EA  EC0C  F008         	call	___awdiv	;wreg free
  1514  0008EE  C008  F010         	movff	?___awdiv,___wmul@multiplier
  1515  0008F2  C009  F011         	movff	?___awdiv+1,___wmul@multiplier+1
  1516  0008F6  0E00               	movlw	0
  1517  0008F8  6E13               	movwf	(___wmul@multiplicand+1)^0,c
  1518  0008FA  0E03               	movlw	3
  1519  0008FC  6E12               	movwf	___wmul@multiplicand^0,c
  1520  0008FE  EC3A  F009         	call	___wmul	;wreg free
  1521  000902  0E38               	movlw	low _vermelho
  1522  000904  6E16               	movwf	??_main^0,c
  1523  000906  0E00               	movlw	high _vermelho
  1524  000908  6E17               	movwf	(??_main+1)^0,c
  1525  00090A  5010               	movf	?___wmul^0,w,c
  1526  00090C  2616               	addwf	??_main^0,f,c
  1527  00090E  5011               	movf	(?___wmul+1)^0,w,c
  1528  000910  2217               	addwfc	(??_main+1)^0,f,c
  1529  000912  C027  F008         	movff	main@i,___awmod@dividend
  1530  000916  6A09               	clrf	(___awmod@dividend+1)^0,c
  1531  000918  0E00               	movlw	0
  1532  00091A  6E0B               	movwf	(___awmod@divisor+1)^0,c
  1533  00091C  0E03               	movlw	3
  1534  00091E  6E0A               	movwf	___awmod@divisor^0,c
  1535  000920  EC6E  F008         	call	___awmod	;wreg free
  1536  000924  5008               	movf	?___awmod^0,w,c
  1537  000926  2416               	addwf	??_main^0,w,c
  1538  000928  6ED9               	movwf	fsr2l,c
  1539  00092A  5009               	movf	(?___awmod+1)^0,w,c
  1540  00092C  2017               	addwfc	(??_main+1)^0,w,c
  1541  00092E  6EDA               	movwf	fsr2h,c
  1542  000930  0E01               	movlw	1
  1543  000932  6EDF               	movwf	indf2,c
  1544  000934                     
  1545                           ;main.c: 304:             }
  1546  000934  0E05               	movlw	5
  1547  000936  6E17               	movwf	(??_main+1)^0,c
  1548  000938  0E0F               	movlw	15
  1549  00093A  6E16               	movwf	??_main^0,c
  1550  00093C  0EF1               	movlw	241
  1551  00093E                     u1557:
  1552  00093E  2EE8               	decfsz	wreg,f,c
  1553  000940  D7FE               	bra	u1557
  1554  000942  2E16               	decfsz	??_main^0,f,c
  1555  000944  D7FC               	bra	u1557
  1556  000946  2E17               	decfsz	(??_main+1)^0,f,c
  1557  000948  D7FA               	bra	u1557
  1558  00094A  F000               	nop	
  1559  00094C                     
  1560                           ;main.c: 305:             _delay((unsigned long)((500)*(16000000/4000.0)));
  1561  00094C  2A27               	incf	main@i^0,f,c
  1562  00094E                     l1710:
  1563  00094E  5025               	movf	main@pontuacao_vermelho^0,w,c
  1564  000950  5C27               	subwf	main@i^0,w,c
  1565  000952  A0D8               	btfss	status,0,c
  1566  000954  EFAE  F004         	goto	u1471
  1567  000958  EFB0  F004         	goto	u1470
  1568  00095C                     u1471:
  1569  00095C  EF6E  F004         	goto	l1704
  1570  000960                     u1470:
  1571  000960                     
  1572                           ;main.c: 306: 
  1573  000960  0E15               	movlw	21
  1574  000962  6E17               	movwf	(??_main+1)^0,c
  1575  000964  0E4B               	movlw	75
  1576  000966  6E16               	movwf	??_main^0,c
  1577  000968  0EBE               	movlw	190
  1578  00096A                     u1567:
  1579  00096A  2EE8               	decfsz	wreg,f,c
  1580  00096C  D7FE               	bra	u1567
  1581  00096E  2E16               	decfsz	??_main^0,f,c
  1582  000970  D7FC               	bra	u1567
  1583  000972  2E17               	decfsz	(??_main+1)^0,f,c
  1584  000974  D7FA               	bra	u1567
  1585  000976  D000               	nop2	
  1586  000978                     
  1587                           ;main.c: 308:             linha = 0;
  1588  000978  0E09               	movlw	9
  1589  00097A  1825               	xorwf	main@pontuacao_vermelho^0,w,c
  1590  00097C  A4D8               	btfss	status,2,c
  1591  00097E  EFC3  F004         	goto	u1481
  1592  000982  EFC5  F004         	goto	u1480
  1593  000986                     u1481:
  1594  000986  EF16  F005         	goto	l1732
  1595  00098A                     u1480:
  1596  00098A                     
  1597                           ;main.c: 309:             posicao = 0;;main.c: 310:             cursor[0][0] = 1;
  1598  00098A  2825               	incf	main@pontuacao_vermelho^0,w,c
  1599  00098C  6E27               	movwf	main@i^0,c
  1600  00098E                     l1718:
  1601  00098E  5027               	movf	main@i^0,w,c
  1602  000990  A4D8               	btfss	status,2,c
  1603  000992  EFCD  F004         	goto	u1491
  1604  000996  EFCF  F004         	goto	u1490
  1605  00099A                     u1491:
  1606  00099A  EFD1  F004         	goto	l1722
  1607  00099E                     u1490:
  1608  00099E  EF12  F005         	goto	l1730
  1609  0009A2                     l1722:
  1610                           
  1611                           ;main.c: 311:             cor = 0;;main.c: 312:         }
  1612  0009A2  0E00               	movlw	0
  1613  0009A4  6E0B               	movwf	(___awdiv@divisor+1)^0,c
  1614  0009A6  0E03               	movlw	3
  1615  0009A8  6E0A               	movwf	___awdiv@divisor^0,c
  1616  0009AA  0EFF               	movlw	255
  1617  0009AC  2427               	addwf	main@i^0,w,c
  1618  0009AE  6E08               	movwf	___awdiv@dividend^0,c
  1619  0009B0  6A09               	clrf	(___awdiv@dividend+1)^0,c
  1620  0009B2  0EFF               	movlw	255
  1621  0009B4  2209               	addwfc	(___awdiv@dividend+1)^0,f,c
  1622  0009B6  EC0C  F008         	call	___awdiv	;wreg free
  1623  0009BA  C008  F010         	movff	?___awdiv,___wmul@multiplier
  1624  0009BE  C009  F011         	movff	?___awdiv+1,___wmul@multiplier+1
  1625  0009C2  0E00               	movlw	0
  1626  0009C4  6E13               	movwf	(___wmul@multiplicand+1)^0,c
  1627  0009C6  0E03               	movlw	3
  1628  0009C8  6E12               	movwf	___wmul@multiplicand^0,c
  1629  0009CA  EC3A  F009         	call	___wmul	;wreg free
  1630  0009CE  0E38               	movlw	low _vermelho
  1631  0009D0  6E16               	movwf	??_main^0,c
  1632  0009D2  0E00               	movlw	high _vermelho
  1633  0009D4  6E17               	movwf	(??_main+1)^0,c
  1634  0009D6  5010               	movf	?___wmul^0,w,c
  1635  0009D8  2616               	addwf	??_main^0,f,c
  1636  0009DA  5011               	movf	(?___wmul+1)^0,w,c
  1637  0009DC  2217               	addwfc	(??_main+1)^0,f,c
  1638  0009DE  0EFF               	movlw	255
  1639  0009E0  2427               	addwf	main@i^0,w,c
  1640  0009E2  6E08               	movwf	___awmod@dividend^0,c
  1641  0009E4  6A09               	clrf	(___awmod@dividend+1)^0,c
  1642  0009E6  0EFF               	movlw	255
  1643  0009E8  2209               	addwfc	(___awmod@dividend+1)^0,f,c
  1644  0009EA  0E00               	movlw	0
  1645  0009EC  6E0B               	movwf	(___awmod@divisor+1)^0,c
  1646  0009EE  0E03               	movlw	3
  1647  0009F0  6E0A               	movwf	___awmod@divisor^0,c
  1648  0009F2  EC6E  F008         	call	___awmod	;wreg free
  1649  0009F6  5008               	movf	?___awmod^0,w,c
  1650  0009F8  2416               	addwf	??_main^0,w,c
  1651  0009FA  6ED9               	movwf	fsr2l,c
  1652  0009FC  5009               	movf	(?___awmod+1)^0,w,c
  1653  0009FE  2017               	addwfc	(??_main+1)^0,w,c
  1654  000A00  6EDA               	movwf	fsr2h,c
  1655  000A02  0E00               	movlw	0
  1656  000A04  6EDF               	movwf	indf2,c
  1657  000A06                     
  1658                           ;main.c: 313: 
  1659  000A06  0E03               	movlw	3
  1660  000A08  6E17               	movwf	(??_main+1)^0,c
  1661  000A0A  0E08               	movlw	8
  1662  000A0C  6E16               	movwf	??_main^0,c
  1663  000A0E  0E77               	movlw	119
  1664  000A10                     u1577:
  1665  000A10  2EE8               	decfsz	wreg,f,c
  1666  000A12  D7FE               	bra	u1577
  1667  000A14  2E16               	decfsz	??_main^0,f,c
  1668  000A16  D7FC               	bra	u1577
  1669  000A18  2E17               	decfsz	(??_main+1)^0,f,c
  1670  000A1A  D7FA               	bra	u1577
  1671  000A1C  F000               	nop	
  1672  000A1E                     
  1673                           ;main.c: 314: 
  1674  000A1E  0627               	decf	main@i^0,f,c
  1675  000A20  EFC7  F004         	goto	l1718
  1676  000A24                     l1730:
  1677                           
  1678                           ;main.c: 315: 
  1679  000A24  0E00               	movlw	0
  1680  000A26  6E25               	movwf	main@pontuacao_vermelho^0,c
  1681                           
  1682                           ;main.c: 316:         if(testa_velha(verde, vermelho))
  1683  000A28  0E00               	movlw	0
  1684  000A2A  6E26               	movwf	main@pontuacao_verde^0,c
  1685  000A2C                     l1732:
  1686                           
  1687                           ;main.c: 318:             limpa_matriz(verde);
  1688  000A2C  0E0B               	movlw	11
  1689  000A2E  6E17               	movwf	(??_main+1)^0,c
  1690  000A30  0E26               	movlw	38
  1691  000A32  6E16               	movwf	??_main^0,c
  1692  000A34  0E5E               	movlw	94
  1693  000A36                     u1587:
  1694  000A36  2EE8               	decfsz	wreg,f,c
  1695  000A38  D7FE               	bra	u1587
  1696  000A3A  2E16               	decfsz	??_main^0,f,c
  1697  000A3C  D7FC               	bra	u1587
  1698  000A3E  2E17               	decfsz	(??_main+1)^0,f,c
  1699  000A40  D7FA               	bra	u1587
  1700  000A42                     
  1701                           ;main.c: 320:             limpa_matriz(cursor);
  1702  000A42  0E38               	movlw	low _vermelho
  1703  000A44  6E08               	movwf	limpa_matriz@matriz^0,c
  1704  000A46  0E00               	movlw	high _vermelho
  1705  000A48  6E09               	movwf	(limpa_matriz@matriz+1)^0,c
  1706  000A4A  EC11  F009         	call	_limpa_matriz	;wreg free
  1707  000A4E                     
  1708                           ;main.c: 321:             limpa_matriz(marcados);
  1709  000A4E  0E00               	movlw	0
  1710  000A50  6E2E               	movwf	_linha^0,c
  1711  000A52                     
  1712                           ;main.c: 322:             _delay((unsigned long)((1000)*(16000000/4000.0)));
  1713  000A52  0E00               	movlw	0
  1714  000A54  6E28               	movwf	main@posicao^0,c
  1715  000A56                     
  1716                           ;main.c: 323:             linha = 0;
  1717  000A56  0E01               	movlw	1
  1718  000A58  6E2F               	movwf	_cursor^0,c
  1719  000A5A                     
  1720                           ;main.c: 324:             posicao = 0;
  1721  000A5A  0E00               	movlw	0
  1722  000A5C  6E2C               	movwf	_cor^0,c
  1723  000A5E                     l1744:
  1724                           
  1725                           ;main.c: 329:     }
  1726  000A5E  0E41               	movlw	low _verde
  1727  000A60  6E08               	movwf	testa_velha@teste1^0,c
  1728  000A62  0E00               	movlw	high _verde
  1729  000A64  6E09               	movwf	(testa_velha@teste1+1)^0,c
  1730  000A66  0E38               	movlw	low _vermelho
  1731  000A68  6E0A               	movwf	testa_velha@teste2^0,c
  1732  000A6A  0E00               	movlw	high _vermelho
  1733  000A6C  6E0B               	movwf	(testa_velha@teste2+1)^0,c
  1734  000A6E  ECC6  F008         	call	_testa_velha	;wreg free
  1735  000A72  0900               	iorlw	0
  1736  000A74  B4D8               	btfsc	status,2,c
  1737  000A76  EF3F  F005         	goto	u1501
  1738  000A7A  EF41  F005         	goto	u1500
  1739  000A7E                     u1501:
  1740  000A7E  EF43  F000         	goto	l1570
  1741  000A82                     u1500:
  1742  000A82                     
  1743                           ;main.c: 330: }
  1744  000A82  0E41               	movlw	low _verde
  1745  000A84  6E08               	movwf	limpa_matriz@matriz^0,c
  1746  000A86  0E00               	movlw	high _verde
  1747  000A88  6E09               	movwf	(limpa_matriz@matriz+1)^0,c
  1748  000A8A  EC11  F009         	call	_limpa_matriz	;wreg free
  1749  000A8E  0E38               	movlw	low _vermelho
  1750  000A90  6E08               	movwf	limpa_matriz@matriz^0,c
  1751  000A92  0E00               	movlw	high _vermelho
  1752  000A94  6E09               	movwf	(limpa_matriz@matriz+1)^0,c
  1753  000A96  EC11  F009         	call	_limpa_matriz	;wreg free
  1754  000A9A  0E2F               	movlw	low _cursor
  1755  000A9C  6E08               	movwf	limpa_matriz@matriz^0,c
  1756  000A9E  0E00               	movlw	high _cursor
  1757  000AA0  6E09               	movwf	(limpa_matriz@matriz+1)^0,c
  1758  000AA2  EC11  F009         	call	_limpa_matriz	;wreg free
  1759  000AA6  0E19               	movlw	low main@marcados
  1760  000AA8  6E08               	movwf	limpa_matriz@matriz^0,c
  1761  000AAA  0E00               	movlw	high main@marcados
  1762  000AAC  6E09               	movwf	(limpa_matriz@matriz+1)^0,c
  1763  000AAE  EC11  F009         	call	_limpa_matriz	;wreg free
  1764  000AB2  0E15               	movlw	21
  1765  000AB4  6E17               	movwf	(??_main+1)^0,c
  1766  000AB6  0E4B               	movlw	75
  1767  000AB8  6E16               	movwf	??_main^0,c
  1768  000ABA  0EBE               	movlw	190
  1769  000ABC                     u1597:
  1770  000ABC  2EE8               	decfsz	wreg,f,c
  1771  000ABE  D7FE               	bra	u1597
  1772  000AC0  2E16               	decfsz	??_main^0,f,c
  1773  000AC2  D7FC               	bra	u1597
  1774  000AC4  2E17               	decfsz	(??_main+1)^0,f,c
  1775  000AC6  D7FA               	bra	u1597
  1776  000AC8  D000               	nop2	
  1777  000ACA  0E00               	movlw	0
  1778  000ACC  6E2E               	movwf	_linha^0,c
  1779  000ACE  0E00               	movlw	0
  1780  000AD0  6E28               	movwf	main@posicao^0,c
  1781  000AD2  0E01               	movlw	1
  1782  000AD4  6E2F               	movwf	_cursor^0,c
  1783  000AD6  0E00               	movlw	0
  1784  000AD8  6E2C               	movwf	_cor^0,c
  1785  000ADA  EF43  F000         	goto	l1570
  1786  000ADE  EF07  F000         	goto	start
  1787  000AE2                     __end_of_main:
  1788                           	callstack 0
  1789                           
  1790 ;; *************** function _testa_velha *****************
  1791 ;; Defined at:
  1792 ;;		line 123 in file "main.c"
  1793 ;; Parameters:    Size  Location     Type
  1794 ;;  teste1          2    7[COMRAM] PTR unsigned char [3]
  1795 ;;		 -> verde(9), 
  1796 ;;  teste2          2    9[COMRAM] PTR unsigned char [3]
  1797 ;;		 -> vermelho(9), 
  1798 ;; Auto vars:     Size  Location     Type
  1799 ;;  j               1   18[COMRAM] unsigned char 
  1800 ;;  i               1   17[COMRAM] unsigned char 
  1801 ;;  soma            1   16[COMRAM] unsigned char 
  1802 ;; Return value:  Size  Location     Type
  1803 ;;                  1    wreg      unsigned char 
  1804 ;; Registers used:
  1805 ;;		wreg, fsr2l, fsr2h, status,2, status,0, prodl, prodh
  1806 ;; Tracked objects:
  1807 ;;		On entry : 0/0
  1808 ;;		On exit  : 0/0
  1809 ;;		Unchanged: 0/0
  1810 ;; Data sizes:     COMRAM   BANK0   BANK1   BANK2   BANK3   BANK4   BANK5
  1811 ;;      Params:         4       0       0       0       0       0       0
  1812 ;;      Locals:         3       0       0       0       0       0       0
  1813 ;;      Temps:          5       0       0       0       0       0       0
  1814 ;;      Totals:        12       0       0       0       0       0       0
  1815 ;;Total ram usage:       12 bytes
  1816 ;; Hardware stack levels used: 1
  1817 ;; Hardware stack levels required when called: 1
  1818 ;; This function calls:
  1819 ;;		Nothing
  1820 ;; This function is called by:
  1821 ;;		_main
  1822 ;; This function uses a non-reentrant model
  1823 ;;
  1824                           
  1825                           	psect	text1
  1826  00118C                     __ptext1:
  1827                           	callstack 0
  1828  00118C                     _testa_velha:
  1829                           	callstack 29
  1830  00118C                     
  1831                           ;main.c: 123:     };main.c: 124: ;main.c: 125:     if(soma == 9);main.c: 127:     else
  1832  00118C  0E00               	movlw	0
  1833  00118E  6E11               	movwf	testa_velha@soma^0,c
  1834                           
  1835                           ;main.c: 132: void limpa_matriz(unsigned char matriz[3][3])
  1836  001190  0E00               	movlw	0
  1837  001192  6E12               	movwf	testa_velha@i^0,c
  1838  001194                     l1390:
  1839                           
  1840                           ;main.c: 133: {;main.c: 134:     unsigned char i, j;
  1841  001194  0E00               	movlw	0
  1842  001196  6E13               	movwf	testa_velha@j^0,c
  1843  001198                     l1396:
  1844                           
  1845                           ;main.c: 135: 
  1846  001198  5012               	movf	testa_velha@i^0,w,c
  1847  00119A  0D03               	mullw	3
  1848  00119C  C00A  F00C         	movff	testa_velha@teste2,??_testa_velha
  1849  0011A0  C00B  F00D         	movff	testa_velha@teste2+1,??_testa_velha+1
  1850  0011A4  50F3               	movf	243,w,c
  1851  0011A6  260C               	addwf	??_testa_velha^0,f,c
  1852  0011A8  50F4               	movf	244,w,c
  1853  0011AA  220D               	addwfc	(??_testa_velha+1)^0,f,c
  1854  0011AC  5013               	movf	testa_velha@j^0,w,c
  1855  0011AE  240C               	addwf	??_testa_velha^0,w,c
  1856  0011B0  6ED9               	movwf	fsr2l,c
  1857  0011B2  0E00               	movlw	0
  1858  0011B4  200D               	addwfc	(??_testa_velha+1)^0,w,c
  1859  0011B6  6EDA               	movwf	fsr2h,c
  1860  0011B8  50DF               	movf	indf2,w,c
  1861  0011BA  6E0E               	movwf	(??_testa_velha+2)^0,c
  1862  0011BC  5012               	movf	testa_velha@i^0,w,c
  1863  0011BE  0D03               	mullw	3
  1864  0011C0  C008  F00F         	movff	testa_velha@teste1,??_testa_velha+3
  1865  0011C4  C009  F010         	movff	testa_velha@teste1+1,??_testa_velha+4
  1866  0011C8  50F3               	movf	243,w,c
  1867  0011CA  260F               	addwf	(??_testa_velha+3)^0,f,c
  1868  0011CC  50F4               	movf	244,w,c
  1869  0011CE  2210               	addwfc	(??_testa_velha+4)^0,f,c
  1870  0011D0  5013               	movf	testa_velha@j^0,w,c
  1871  0011D2  240F               	addwf	(??_testa_velha+3)^0,w,c
  1872  0011D4  6ED9               	movwf	fsr2l,c
  1873  0011D6  0E00               	movlw	0
  1874  0011D8  2010               	addwfc	(??_testa_velha+4)^0,w,c
  1875  0011DA  6EDA               	movwf	fsr2h,c
  1876  0011DC  50DF               	movf	indf2,w,c
  1877  0011DE  240E               	addwf	(??_testa_velha+2)^0,w,c
  1878  0011E0  2611               	addwf	testa_velha@soma^0,f,c
  1879  0011E2  2A13               	incf	testa_velha@j^0,f,c
  1880  0011E4  0E02               	movlw	2
  1881  0011E6  6413               	cpfsgt	testa_velha@j^0,c
  1882  0011E8  EFF8  F008         	goto	u1071
  1883  0011EC  EFFA  F008         	goto	u1070
  1884  0011F0                     u1071:
  1885  0011F0  EFCC  F008         	goto	l1396
  1886  0011F4                     u1070:
  1887  0011F4                     
  1888                           ;main.c: 136:     for(i = 0; i < 3; i++)
  1889  0011F4  2A12               	incf	testa_velha@i^0,f,c
  1890  0011F6  0E02               	movlw	2
  1891  0011F8  6412               	cpfsgt	testa_velha@i^0,c
  1892  0011FA  EF01  F009         	goto	u1081
  1893  0011FE  EF03  F009         	goto	u1080
  1894  001202                     u1081:
  1895  001202  EFCA  F008         	goto	l1390
  1896  001206                     u1080:
  1897  001206                     
  1898                           ;main.c: 138:         for(j = 0; j < 3; j++)
  1899  001206  0E09               	movlw	9
  1900  001208  1811               	xorwf	testa_velha@soma^0,w,c
  1901  00120A  A4D8               	btfss	status,2,c
  1902  00120C  EF0A  F009         	goto	u1091
  1903  001210  EF0C  F009         	goto	u1090
  1904  001214                     u1091:
  1905  001214  EF0F  F009         	goto	l1414
  1906  001218                     u1090:
  1907  001218                     
  1908                           ;main.c: 139:             matriz[i][j] = 0;
  1909  001218  0E01               	movlw	1
  1910  00121A  EF10  F009         	goto	l79
  1911  00121E                     l1414:
  1912                           
  1913                           ;main.c: 141: }
  1914  00121E  0E00               	movlw	0
  1915  001220                     l79:
  1916  001220  0012               	return		;funcret
  1917  001222                     __end_of_testa_velha:
  1918                           	callstack 0
  1919                           
  1920 ;; *************** function _testa_ganhou *****************
  1921 ;; Defined at:
  1922 ;;		line 93 in file "main.c"
  1923 ;; Parameters:    Size  Location     Type
  1924 ;;  teste           2    7[COMRAM] PTR unsigned char [3]
  1925 ;;		 -> verde(9), vermelho(9), 
  1926 ;; Auto vars:     Size  Location     Type
  1927 ;;		None
  1928 ;; Return value:  Size  Location     Type
  1929 ;;                  1    wreg      unsigned char 
  1930 ;; Registers used:
  1931 ;;		wreg, fsr2l, fsr2h, status,2, status,0
  1932 ;; Tracked objects:
  1933 ;;		On entry : 0/0
  1934 ;;		On exit  : 0/0
  1935 ;;		Unchanged: 0/0
  1936 ;; Data sizes:     COMRAM   BANK0   BANK1   BANK2   BANK3   BANK4   BANK5
  1937 ;;      Params:         2       0       0       0       0       0       0
  1938 ;;      Locals:         0       0       0       0       0       0       0
  1939 ;;      Temps:          0       0       0       0       0       0       0
  1940 ;;      Totals:         2       0       0       0       0       0       0
  1941 ;;Total ram usage:        2 bytes
  1942 ;; Hardware stack levels used: 1
  1943 ;; Hardware stack levels required when called: 1
  1944 ;; This function calls:
  1945 ;;		Nothing
  1946 ;; This function is called by:
  1947 ;;		_main
  1948 ;; This function uses a non-reentrant model
  1949 ;;
  1950                           
  1951                           	psect	text2
  1952  000AE2                     __ptext2:
  1953                           	callstack 0
  1954  000AE2                     _testa_ganhou:
  1955                           	callstack 29
  1956  000AE2                     
  1957                           ;main.c: 93:     if(teste[1][0] && teste[1][1] && teste[1][2]);main.c: 94:         retur
      +                          n 1;;main.c: 96:         return 1;
  1958  000AE2  C008  FFD9         	movff	testa_ganhou@teste,fsr2l
  1959  000AE6  C009  FFDA         	movff	testa_ganhou@teste+1,fsr2h
  1960  000AEA  50DF               	movf	indf2,w,c
  1961  000AEC  B4D8               	btfsc	status,2,c
  1962  000AEE  EF7B  F005         	goto	u831
  1963  000AF2  EF7D  F005         	goto	u830
  1964  000AF6                     u831:
  1965  000AF6  EF9C  F005         	goto	l1310
  1966  000AFA                     u830:
  1967  000AFA  EE20 F003          	lfsr	2,3
  1968  000AFE  5008               	movf	testa_ganhou@teste^0,w,c
  1969  000B00  26D9               	addwf	fsr2l,f,c
  1970  000B02  5009               	movf	(testa_ganhou@teste+1)^0,w,c
  1971  000B04  22DA               	addwfc	fsr2h,f,c
  1972  000B06  50DF               	movf	indf2,w,c
  1973  000B08  B4D8               	btfsc	status,2,c
  1974  000B0A  EF89  F005         	goto	u841
  1975  000B0E  EF8B  F005         	goto	u840
  1976  000B12                     u841:
  1977  000B12  EF9C  F005         	goto	l1310
  1978  000B16                     u840:
  1979  000B16  EE20 F006          	lfsr	2,6
  1980  000B1A  5008               	movf	testa_ganhou@teste^0,w,c
  1981  000B1C  26D9               	addwf	fsr2l,f,c
  1982  000B1E  5009               	movf	(testa_ganhou@teste+1)^0,w,c
  1983  000B20  22DA               	addwfc	fsr2h,f,c
  1984  000B22  50DF               	movf	indf2,w,c
  1985  000B24  B4D8               	btfsc	status,2,c
  1986  000B26  EF97  F005         	goto	u851
  1987  000B2A  EF99  F005         	goto	u850
  1988  000B2E                     u851:
  1989  000B2E  EF9C  F005         	goto	l1310
  1990  000B32                     u850:
  1991  000B32                     l1306:
  1992                           
  1993                           ;main.c: 97: 
  1994  000B32  0E01               	movlw	1
  1995  000B34  EFCD  F006         	goto	l64
  1996  000B38                     l1310:
  1997                           
  1998                           ;main.c: 98: 
  1999  000B38  EE20 F001          	lfsr	2,1
  2000  000B3C  5008               	movf	testa_ganhou@teste^0,w,c
  2001  000B3E  26D9               	addwf	fsr2l,f,c
  2002  000B40  5009               	movf	(testa_ganhou@teste+1)^0,w,c
  2003  000B42  22DA               	addwfc	fsr2h,f,c
  2004  000B44  50DF               	movf	indf2,w,c
  2005  000B46  B4D8               	btfsc	status,2,c
  2006  000B48  EFA8  F005         	goto	u861
  2007  000B4C  EFAA  F005         	goto	u860
  2008  000B50                     u861:
  2009  000B50  EFC8  F005         	goto	l1320
  2010  000B54                     u860:
  2011  000B54  EE20 F004          	lfsr	2,4
  2012  000B58  5008               	movf	testa_ganhou@teste^0,w,c
  2013  000B5A  26D9               	addwf	fsr2l,f,c
  2014  000B5C  5009               	movf	(testa_ganhou@teste+1)^0,w,c
  2015  000B5E  22DA               	addwfc	fsr2h,f,c
  2016  000B60  50DF               	movf	indf2,w,c
  2017  000B62  B4D8               	btfsc	status,2,c
  2018  000B64  EFB6  F005         	goto	u871
  2019  000B68  EFB8  F005         	goto	u870
  2020  000B6C                     u871:
  2021  000B6C  EFC8  F005         	goto	l1320
  2022  000B70                     u870:
  2023  000B70  EE20 F007          	lfsr	2,7
  2024  000B74  5008               	movf	testa_ganhou@teste^0,w,c
  2025  000B76  26D9               	addwf	fsr2l,f,c
  2026  000B78  5009               	movf	(testa_ganhou@teste+1)^0,w,c
  2027  000B7A  22DA               	addwfc	fsr2h,f,c
  2028  000B7C  50DF               	movf	indf2,w,c
  2029  000B7E  B4D8               	btfsc	status,2,c
  2030  000B80  EFC4  F005         	goto	u881
  2031  000B84  EFC6  F005         	goto	u880
  2032  000B88                     u881:
  2033  000B88  EFC8  F005         	goto	l1320
  2034  000B8C                     u880:
  2035  000B8C  EF99  F005         	goto	l1306
  2036  000B90                     l1320:
  2037                           
  2038                           ;main.c: 100:         return 1;
  2039  000B90  EE20 F002          	lfsr	2,2
  2040  000B94  5008               	movf	testa_ganhou@teste^0,w,c
  2041  000B96  26D9               	addwf	fsr2l,f,c
  2042  000B98  5009               	movf	(testa_ganhou@teste+1)^0,w,c
  2043  000B9A  22DA               	addwfc	fsr2h,f,c
  2044  000B9C  50DF               	movf	indf2,w,c
  2045  000B9E  B4D8               	btfsc	status,2,c
  2046  000BA0  EFD4  F005         	goto	u891
  2047  000BA4  EFD6  F005         	goto	u890
  2048  000BA8                     u891:
  2049  000BA8  EFF4  F005         	goto	l1330
  2050  000BAC                     u890:
  2051  000BAC  EE20 F005          	lfsr	2,5
  2052  000BB0  5008               	movf	testa_ganhou@teste^0,w,c
  2053  000BB2  26D9               	addwf	fsr2l,f,c
  2054  000BB4  5009               	movf	(testa_ganhou@teste+1)^0,w,c
  2055  000BB6  22DA               	addwfc	fsr2h,f,c
  2056  000BB8  50DF               	movf	indf2,w,c
  2057  000BBA  B4D8               	btfsc	status,2,c
  2058  000BBC  EFE2  F005         	goto	u901
  2059  000BC0  EFE4  F005         	goto	u900
  2060  000BC4                     u901:
  2061  000BC4  EFF4  F005         	goto	l1330
  2062  000BC8                     u900:
  2063  000BC8  EE20 F008          	lfsr	2,8
  2064  000BCC  5008               	movf	testa_ganhou@teste^0,w,c
  2065  000BCE  26D9               	addwf	fsr2l,f,c
  2066  000BD0  5009               	movf	(testa_ganhou@teste+1)^0,w,c
  2067  000BD2  22DA               	addwfc	fsr2h,f,c
  2068  000BD4  50DF               	movf	indf2,w,c
  2069  000BD6  B4D8               	btfsc	status,2,c
  2070  000BD8  EFF0  F005         	goto	u911
  2071  000BDC  EFF2  F005         	goto	u910
  2072  000BE0                     u911:
  2073  000BE0  EFF4  F005         	goto	l1330
  2074  000BE4                     u910:
  2075  000BE4  EF99  F005         	goto	l1306
  2076  000BE8                     l1330:
  2077                           
  2078                           ;main.c: 104: 
  2079  000BE8  C008  FFD9         	movff	testa_ganhou@teste,fsr2l
  2080  000BEC  C009  FFDA         	movff	testa_ganhou@teste+1,fsr2h
  2081  000BF0  50DF               	movf	indf2,w,c
  2082  000BF2  B4D8               	btfsc	status,2,c
  2083  000BF4  EFFE  F005         	goto	u921
  2084  000BF8  EF00  F006         	goto	u920
  2085  000BFC                     u921:
  2086  000BFC  EF1E  F006         	goto	l1340
  2087  000C00                     u920:
  2088  000C00  EE20 F001          	lfsr	2,1
  2089  000C04  5008               	movf	testa_ganhou@teste^0,w,c
  2090  000C06  26D9               	addwf	fsr2l,f,c
  2091  000C08  5009               	movf	(testa_ganhou@teste+1)^0,w,c
  2092  000C0A  22DA               	addwfc	fsr2h,f,c
  2093  000C0C  50DF               	movf	indf2,w,c
  2094  000C0E  B4D8               	btfsc	status,2,c
  2095  000C10  EF0C  F006         	goto	u931
  2096  000C14  EF0E  F006         	goto	u930
  2097  000C18                     u931:
  2098  000C18  EF1E  F006         	goto	l1340
  2099  000C1C                     u930:
  2100  000C1C  EE20 F002          	lfsr	2,2
  2101  000C20  5008               	movf	testa_ganhou@teste^0,w,c
  2102  000C22  26D9               	addwf	fsr2l,f,c
  2103  000C24  5009               	movf	(testa_ganhou@teste+1)^0,w,c
  2104  000C26  22DA               	addwfc	fsr2h,f,c
  2105  000C28  50DF               	movf	indf2,w,c
  2106  000C2A  B4D8               	btfsc	status,2,c
  2107  000C2C  EF1A  F006         	goto	u941
  2108  000C30  EF1C  F006         	goto	u940
  2109  000C34                     u941:
  2110  000C34  EF1E  F006         	goto	l1340
  2111  000C38                     u940:
  2112  000C38  EF99  F005         	goto	l1306
  2113  000C3C                     l1340:
  2114                           
  2115                           ;main.c: 106: }
  2116  000C3C  EE20 F003          	lfsr	2,3
  2117  000C40  5008               	movf	testa_ganhou@teste^0,w,c
  2118  000C42  26D9               	addwf	fsr2l,f,c
  2119  000C44  5009               	movf	(testa_ganhou@teste+1)^0,w,c
  2120  000C46  22DA               	addwfc	fsr2h,f,c
  2121  000C48  50DF               	movf	indf2,w,c
  2122  000C4A  B4D8               	btfsc	status,2,c
  2123  000C4C  EF2A  F006         	goto	u951
  2124  000C50  EF2C  F006         	goto	u950
  2125  000C54                     u951:
  2126  000C54  EF4A  F006         	goto	l1350
  2127  000C58                     u950:
  2128  000C58  EE20 F004          	lfsr	2,4
  2129  000C5C  5008               	movf	testa_ganhou@teste^0,w,c
  2130  000C5E  26D9               	addwf	fsr2l,f,c
  2131  000C60  5009               	movf	(testa_ganhou@teste+1)^0,w,c
  2132  000C62  22DA               	addwfc	fsr2h,f,c
  2133  000C64  50DF               	movf	indf2,w,c
  2134  000C66  B4D8               	btfsc	status,2,c
  2135  000C68  EF38  F006         	goto	u961
  2136  000C6C  EF3A  F006         	goto	u960
  2137  000C70                     u961:
  2138  000C70  EF4A  F006         	goto	l1350
  2139  000C74                     u960:
  2140  000C74  EE20 F005          	lfsr	2,5
  2141  000C78  5008               	movf	testa_ganhou@teste^0,w,c
  2142  000C7A  26D9               	addwf	fsr2l,f,c
  2143  000C7C  5009               	movf	(testa_ganhou@teste+1)^0,w,c
  2144  000C7E  22DA               	addwfc	fsr2h,f,c
  2145  000C80  50DF               	movf	indf2,w,c
  2146  000C82  B4D8               	btfsc	status,2,c
  2147  000C84  EF46  F006         	goto	u971
  2148  000C88  EF48  F006         	goto	u970
  2149  000C8C                     u971:
  2150  000C8C  EF4A  F006         	goto	l1350
  2151  000C90                     u970:
  2152  000C90  EF99  F005         	goto	l1306
  2153  000C94                     l1350:
  2154                           
  2155                           ;main.c: 108: 
  2156  000C94  EE20 F006          	lfsr	2,6
  2157  000C98  5008               	movf	testa_ganhou@teste^0,w,c
  2158  000C9A  26D9               	addwf	fsr2l,f,c
  2159  000C9C  5009               	movf	(testa_ganhou@teste+1)^0,w,c
  2160  000C9E  22DA               	addwfc	fsr2h,f,c
  2161  000CA0  50DF               	movf	indf2,w,c
  2162  000CA2  B4D8               	btfsc	status,2,c
  2163  000CA4  EF56  F006         	goto	u981
  2164  000CA8  EF58  F006         	goto	u980
  2165  000CAC                     u981:
  2166  000CAC  EF76  F006         	goto	l1360
  2167  000CB0                     u980:
  2168  000CB0  EE20 F007          	lfsr	2,7
  2169  000CB4  5008               	movf	testa_ganhou@teste^0,w,c
  2170  000CB6  26D9               	addwf	fsr2l,f,c
  2171  000CB8  5009               	movf	(testa_ganhou@teste+1)^0,w,c
  2172  000CBA  22DA               	addwfc	fsr2h,f,c
  2173  000CBC  50DF               	movf	indf2,w,c
  2174  000CBE  B4D8               	btfsc	status,2,c
  2175  000CC0  EF64  F006         	goto	u991
  2176  000CC4  EF66  F006         	goto	u990
  2177  000CC8                     u991:
  2178  000CC8  EF76  F006         	goto	l1360
  2179  000CCC                     u990:
  2180  000CCC  EE20 F008          	lfsr	2,8
  2181  000CD0  5008               	movf	testa_ganhou@teste^0,w,c
  2182  000CD2  26D9               	addwf	fsr2l,f,c
  2183  000CD4  5009               	movf	(testa_ganhou@teste+1)^0,w,c
  2184  000CD6  22DA               	addwfc	fsr2h,f,c
  2185  000CD8  50DF               	movf	indf2,w,c
  2186  000CDA  B4D8               	btfsc	status,2,c
  2187  000CDC  EF72  F006         	goto	u1001
  2188  000CE0  EF74  F006         	goto	u1000
  2189  000CE4                     u1001:
  2190  000CE4  EF76  F006         	goto	l1360
  2191  000CE8                     u1000:
  2192  000CE8  EF99  F005         	goto	l1306
  2193  000CEC                     l1360:
  2194                           
  2195                           ;main.c: 112:     unsigned char i, j, soma;
  2196  000CEC  C008  FFD9         	movff	testa_ganhou@teste,fsr2l
  2197  000CF0  C009  FFDA         	movff	testa_ganhou@teste+1,fsr2h
  2198  000CF4  50DF               	movf	indf2,w,c
  2199  000CF6  B4D8               	btfsc	status,2,c
  2200  000CF8  EF80  F006         	goto	u1011
  2201  000CFC  EF82  F006         	goto	u1010
  2202  000D00                     u1011:
  2203  000D00  EFA0  F006         	goto	l1370
  2204  000D04                     u1010:
  2205  000D04  EE20 F004          	lfsr	2,4
  2206  000D08  5008               	movf	testa_ganhou@teste^0,w,c
  2207  000D0A  26D9               	addwf	fsr2l,f,c
  2208  000D0C  5009               	movf	(testa_ganhou@teste+1)^0,w,c
  2209  000D0E  22DA               	addwfc	fsr2h,f,c
  2210  000D10  50DF               	movf	indf2,w,c
  2211  000D12  B4D8               	btfsc	status,2,c
  2212  000D14  EF8E  F006         	goto	u1021
  2213  000D18  EF90  F006         	goto	u1020
  2214  000D1C                     u1021:
  2215  000D1C  EFA0  F006         	goto	l1370
  2216  000D20                     u1020:
  2217  000D20  EE20 F008          	lfsr	2,8
  2218  000D24  5008               	movf	testa_ganhou@teste^0,w,c
  2219  000D26  26D9               	addwf	fsr2l,f,c
  2220  000D28  5009               	movf	(testa_ganhou@teste+1)^0,w,c
  2221  000D2A  22DA               	addwfc	fsr2h,f,c
  2222  000D2C  50DF               	movf	indf2,w,c
  2223  000D2E  B4D8               	btfsc	status,2,c
  2224  000D30  EF9C  F006         	goto	u1031
  2225  000D34  EF9E  F006         	goto	u1030
  2226  000D38                     u1031:
  2227  000D38  EFA0  F006         	goto	l1370
  2228  000D3C                     u1030:
  2229  000D3C  EF99  F005         	goto	l1306
  2230  000D40                     l1370:
  2231                           
  2232                           ;main.c: 114:     soma = 0;
  2233  000D40  EE20 F002          	lfsr	2,2
  2234  000D44  5008               	movf	testa_ganhou@teste^0,w,c
  2235  000D46  26D9               	addwf	fsr2l,f,c
  2236  000D48  5009               	movf	(testa_ganhou@teste+1)^0,w,c
  2237  000D4A  22DA               	addwfc	fsr2h,f,c
  2238  000D4C  50DF               	movf	indf2,w,c
  2239  000D4E  B4D8               	btfsc	status,2,c
  2240  000D50  EFAC  F006         	goto	u1041
  2241  000D54  EFAE  F006         	goto	u1040
  2242  000D58                     u1041:
  2243  000D58  EFCC  F006         	goto	l1380
  2244  000D5C                     u1040:
  2245  000D5C  EE20 F004          	lfsr	2,4
  2246  000D60  5008               	movf	testa_ganhou@teste^0,w,c
  2247  000D62  26D9               	addwf	fsr2l,f,c
  2248  000D64  5009               	movf	(testa_ganhou@teste+1)^0,w,c
  2249  000D66  22DA               	addwfc	fsr2h,f,c
  2250  000D68  50DF               	movf	indf2,w,c
  2251  000D6A  B4D8               	btfsc	status,2,c
  2252  000D6C  EFBA  F006         	goto	u1051
  2253  000D70  EFBC  F006         	goto	u1050
  2254  000D74                     u1051:
  2255  000D74  EFCC  F006         	goto	l1380
  2256  000D78                     u1050:
  2257  000D78  EE20 F006          	lfsr	2,6
  2258  000D7C  5008               	movf	testa_ganhou@teste^0,w,c
  2259  000D7E  26D9               	addwf	fsr2l,f,c
  2260  000D80  5009               	movf	(testa_ganhou@teste+1)^0,w,c
  2261  000D82  22DA               	addwfc	fsr2h,f,c
  2262  000D84  50DF               	movf	indf2,w,c
  2263  000D86  B4D8               	btfsc	status,2,c
  2264  000D88  EFC8  F006         	goto	u1061
  2265  000D8C  EFCA  F006         	goto	u1060
  2266  000D90                     u1061:
  2267  000D90  EFCC  F006         	goto	l1380
  2268  000D94                     u1060:
  2269  000D94  EF99  F005         	goto	l1306
  2270  000D98                     l1380:
  2271                           
  2272                           ;main.c: 118: 
  2273  000D98  0E00               	movlw	0
  2274  000D9A                     l64:
  2275  000D9A  0012               	return		;funcret
  2276  000D9C                     __end_of_testa_ganhou:
  2277                           	callstack 0
  2278                           
  2279 ;; *************** function _limpa_matriz *****************
  2280 ;; Defined at:
  2281 ;;		line 145 in file "main.c"
  2282 ;; Parameters:    Size  Location     Type
  2283 ;;  matriz          2    7[COMRAM] PTR unsigned char [3]
  2284 ;;		 -> main@marcados(9), verde(9), cursor(9), vermelho(9), 
  2285 ;; Auto vars:     Size  Location     Type
  2286 ;;  j               1   12[COMRAM] unsigned char 
  2287 ;;  i               1   11[COMRAM] unsigned char 
  2288 ;; Return value:  Size  Location     Type
  2289 ;;                  1    wreg      void 
  2290 ;; Registers used:
  2291 ;;		wreg, fsr2l, fsr2h, status,2, status,0, prodl, prodh
  2292 ;; Tracked objects:
  2293 ;;		On entry : 0/0
  2294 ;;		On exit  : 0/0
  2295 ;;		Unchanged: 0/0
  2296 ;; Data sizes:     COMRAM   BANK0   BANK1   BANK2   BANK3   BANK4   BANK5
  2297 ;;      Params:         2       0       0       0       0       0       0
  2298 ;;      Locals:         2       0       0       0       0       0       0
  2299 ;;      Temps:          2       0       0       0       0       0       0
  2300 ;;      Totals:         6       0       0       0       0       0       0
  2301 ;;Total ram usage:        6 bytes
  2302 ;; Hardware stack levels used: 1
  2303 ;; Hardware stack levels required when called: 1
  2304 ;; This function calls:
  2305 ;;		Nothing
  2306 ;; This function is called by:
  2307 ;;		_main
  2308 ;; This function uses a non-reentrant model
  2309 ;;
  2310                           
  2311                           	psect	text3
  2312  001222                     __ptext3:
  2313                           	callstack 0
  2314  001222                     _limpa_matriz:
  2315                           	callstack 29
  2316  001222                     
  2317                           ;main.c: 145: ;main.c: 146:     unsigned char i, j, MOVE_Old, SEL_Old, pontuacao_vermelh
      +                          o, pontuacao_verde, marcados[3][3], aux;;main.c: 147:     signed char posicao;;main.c: 1
      +                          49: 
  2318  001222  0E00               	movlw	0
  2319  001224  6E0C               	movwf	limpa_matriz@i^0,c
  2320  001226                     l1424:
  2321                           
  2322                           ;main.c: 150: ;main.c: 151:     limpa_matriz(verde);
  2323  001226  0E00               	movlw	0
  2324  001228  6E0D               	movwf	limpa_matriz@j^0,c
  2325  00122A                     l1430:
  2326                           
  2327                           ;main.c: 152:     limpa_matriz(vermelho);
  2328  00122A  500C               	movf	limpa_matriz@i^0,w,c
  2329  00122C  0D03               	mullw	3
  2330  00122E  C008  F00A         	movff	limpa_matriz@matriz,??_limpa_matriz
  2331  001232  C009  F00B         	movff	limpa_matriz@matriz+1,??_limpa_matriz+1
  2332  001236  50F3               	movf	243,w,c
  2333  001238  260A               	addwf	??_limpa_matriz^0,f,c
  2334  00123A  50F4               	movf	244,w,c
  2335  00123C  220B               	addwfc	(??_limpa_matriz+1)^0,f,c
  2336  00123E  500D               	movf	limpa_matriz@j^0,w,c
  2337  001240  240A               	addwf	??_limpa_matriz^0,w,c
  2338  001242  6ED9               	movwf	fsr2l,c
  2339  001244  0E00               	movlw	0
  2340  001246  200B               	addwfc	(??_limpa_matriz+1)^0,w,c
  2341  001248  6EDA               	movwf	fsr2h,c
  2342  00124A  0E00               	movlw	0
  2343  00124C  6EDF               	movwf	indf2,c
  2344  00124E  2A0D               	incf	limpa_matriz@j^0,f,c
  2345  001250  0E02               	movlw	2
  2346  001252  640D               	cpfsgt	limpa_matriz@j^0,c
  2347  001254  EF2E  F009         	goto	u1101
  2348  001258  EF30  F009         	goto	u1100
  2349  00125C                     u1101:
  2350  00125C  EF15  F009         	goto	l1430
  2351  001260                     u1100:
  2352  001260                     
  2353                           ;main.c: 153:     limpa_matriz(cursor);
  2354  001260  2A0C               	incf	limpa_matriz@i^0,f,c
  2355  001262  0E02               	movlw	2
  2356  001264  640C               	cpfsgt	limpa_matriz@i^0,c
  2357  001266  EF37  F009         	goto	u1111
  2358  00126A  EF39  F009         	goto	u1110
  2359  00126E                     u1111:
  2360  00126E  EF13  F009         	goto	l1424
  2361  001272                     u1110:
  2362  001272  0012               	return		;funcret
  2363  001274                     __end_of_limpa_matriz:
  2364                           	callstack 0
  2365                           
  2366 ;; *************** function _conf_interrupt *****************
  2367 ;; Defined at:
  2368 ;;		line 79 in file "main.c"
  2369 ;; Parameters:    Size  Location     Type
  2370 ;;		None
  2371 ;; Auto vars:     Size  Location     Type
  2372 ;;		None
  2373 ;; Return value:  Size  Location     Type
  2374 ;;                  1    wreg      void 
  2375 ;; Registers used:
  2376 ;;		wreg, status,2
  2377 ;; Tracked objects:
  2378 ;;		On entry : 0/0
  2379 ;;		On exit  : 0/0
  2380 ;;		Unchanged: 0/0
  2381 ;; Data sizes:     COMRAM   BANK0   BANK1   BANK2   BANK3   BANK4   BANK5
  2382 ;;      Params:         0       0       0       0       0       0       0
  2383 ;;      Locals:         0       0       0       0       0       0       0
  2384 ;;      Temps:          0       0       0       0       0       0       0
  2385 ;;      Totals:         0       0       0       0       0       0       0
  2386 ;;Total ram usage:        0 bytes
  2387 ;; Hardware stack levels used: 1
  2388 ;; Hardware stack levels required when called: 1
  2389 ;; This function calls:
  2390 ;;		Nothing
  2391 ;; This function is called by:
  2392 ;;		_main
  2393 ;; This function uses a non-reentrant model
  2394 ;;
  2395                           
  2396                           	psect	text4
  2397  00129A                     __ptext4:
  2398                           	callstack 0
  2399  00129A                     _conf_interrupt:
  2400                           	callstack 29
  2401  00129A                     
  2402                           ;main.c: 80: unsigned char testa_ganhou(unsigned char teste[3][3])
  2403  00129A  92F2               	bcf	242,1,c	;volatile
  2404                           
  2405                           ;main.c: 81: {
  2406  00129C  88F2               	bsf	242,4,c	;volatile
  2407                           
  2408                           ;main.c: 83:     if(teste[0][0] && teste[1][0] && teste[2][0])
  2409  00129E  8CD5               	bsf	213,6,c	;volatile
  2410                           
  2411                           ;main.c: 84:         return 1;
  2412  0012A0  9AD5               	bcf	213,5,c	;volatile
  2413                           
  2414                           ;main.c: 85:     if(teste[0][1] && teste[1][1] && teste[2][1])
  2415  0012A2  96D5               	bcf	213,3,c	;volatile
  2416  0012A4                     
  2417                           ;main.c: 86:         return 1;
  2418  0012A4  50D5               	movf	213,w,c	;volatile
  2419  0012A6  0BF8               	andlw	-8
  2420  0012A8  0904               	iorlw	4
  2421  0012AA  6ED5               	movwf	213,c	;volatile
  2422  0012AC                     
  2423                           ;main.c: 87:     if(teste[0][2] && teste[1][2] && teste[2][2])
  2424  0012AC  8ED5               	bsf	213,7,c	;volatile
  2425                           
  2426                           ;main.c: 89: 
  2427  0012AE  0E0F               	movlw	15
  2428  0012B0  6EC1               	movwf	193,c	;volatile
  2429  0012B2  0012               	return		;funcret
  2430  0012B4                     __end_of_conf_interrupt:
  2431                           	callstack 0
  2432                           
  2433 ;; *************** function ___wmul *****************
  2434 ;; Defined at:
  2435 ;;		line 15 in file "C:\Program Files\Microchip\xc8\v2.32\pic\sources\c99\common\Umul16.c"
  2436 ;; Parameters:    Size  Location     Type
  2437 ;;  multiplier      2   15[COMRAM] unsigned int 
  2438 ;;  multiplicand    2   17[COMRAM] unsigned int 
  2439 ;; Auto vars:     Size  Location     Type
  2440 ;;  product         2   19[COMRAM] unsigned int 
  2441 ;; Return value:  Size  Location     Type
  2442 ;;                  2   15[COMRAM] unsigned int 
  2443 ;; Registers used:
  2444 ;;		wreg, status,2, status,0, prodl, prodh
  2445 ;; Tracked objects:
  2446 ;;		On entry : 0/0
  2447 ;;		On exit  : 0/0
  2448 ;;		Unchanged: 0/0
  2449 ;; Data sizes:     COMRAM   BANK0   BANK1   BANK2   BANK3   BANK4   BANK5
  2450 ;;      Params:         4       0       0       0       0       0       0
  2451 ;;      Locals:         2       0       0       0       0       0       0
  2452 ;;      Temps:          0       0       0       0       0       0       0
  2453 ;;      Totals:         6       0       0       0       0       0       0
  2454 ;;Total ram usage:        6 bytes
  2455 ;; Hardware stack levels used: 1
  2456 ;; Hardware stack levels required when called: 1
  2457 ;; This function calls:
  2458 ;;		Nothing
  2459 ;; This function is called by:
  2460 ;;		_main
  2461 ;; This function uses a non-reentrant model
  2462 ;;
  2463                           
  2464                           	psect	text5
  2465  001274                     __ptext5:
  2466                           	callstack 0
  2467  001274                     ___wmul:
  2468                           	callstack 29
  2469  001274  5010               	movf	___wmul@multiplier^0,w,c
  2470  001276  0212               	mulwf	___wmul@multiplicand^0,c
  2471  001278  CFF3 F014          	movff	prodl,___wmul@product
  2472  00127C  CFF4 F015          	movff	prodh,___wmul@product+1
  2473  001280  5010               	movf	___wmul@multiplier^0,w,c
  2474  001282  0213               	mulwf	(___wmul@multiplicand+1)^0,c
  2475  001284  50F3               	movf	243,w,c
  2476  001286  2615               	addwf	(___wmul@product+1)^0,f,c
  2477  001288  5011               	movf	(___wmul@multiplier+1)^0,w,c
  2478  00128A  0212               	mulwf	___wmul@multiplicand^0,c
  2479  00128C  50F3               	movf	243,w,c
  2480  00128E  2615               	addwf	(___wmul@product+1)^0,f,c
  2481  001290  C014  F010         	movff	___wmul@product,?___wmul
  2482  001294  C015  F011         	movff	___wmul@product+1,?___wmul+1
  2483  001298  0012               	return		;funcret
  2484  00129A                     __end_of___wmul:
  2485                           	callstack 0
  2486                           
  2487 ;; *************** function ___awmod *****************
  2488 ;; Defined at:
  2489 ;;		line 7 in file "C:\Program Files\Microchip\xc8\v2.32\pic\sources\c99\common\awmod.c"
  2490 ;; Parameters:    Size  Location     Type
  2491 ;;  dividend        2    7[COMRAM] int 
  2492 ;;  divisor         2    9[COMRAM] int 
  2493 ;; Auto vars:     Size  Location     Type
  2494 ;;  sign            1   12[COMRAM] unsigned char 
  2495 ;;  counter         1   11[COMRAM] unsigned char 
  2496 ;; Return value:  Size  Location     Type
  2497 ;;                  2    7[COMRAM] int 
  2498 ;; Registers used:
  2499 ;;		wreg, status,2, status,0
  2500 ;; Tracked objects:
  2501 ;;		On entry : 0/0
  2502 ;;		On exit  : 0/0
  2503 ;;		Unchanged: 0/0
  2504 ;; Data sizes:     COMRAM   BANK0   BANK1   BANK2   BANK3   BANK4   BANK5
  2505 ;;      Params:         4       0       0       0       0       0       0
  2506 ;;      Locals:         2       0       0       0       0       0       0
  2507 ;;      Temps:          0       0       0       0       0       0       0
  2508 ;;      Totals:         6       0       0       0       0       0       0
  2509 ;;Total ram usage:        6 bytes
  2510 ;; Hardware stack levels used: 1
  2511 ;; Hardware stack levels required when called: 1
  2512 ;; This function calls:
  2513 ;;		Nothing
  2514 ;; This function is called by:
  2515 ;;		_main
  2516 ;; This function uses a non-reentrant model
  2517 ;;
  2518                           
  2519                           	psect	text6
  2520  0010DC                     __ptext6:
  2521                           	callstack 0
  2522  0010DC                     ___awmod:
  2523                           	callstack 29
  2524  0010DC  0E00               	movlw	0
  2525  0010DE  6E0D               	movwf	___awmod@sign^0,c
  2526  0010E0  BE09               	btfsc	(___awmod@dividend+1)^0,7,c
  2527  0010E2  EF77  F008         	goto	u1180
  2528  0010E6  EF75  F008         	goto	u1181
  2529  0010EA                     u1181:
  2530  0010EA  EF7D  F008         	goto	l1498
  2531  0010EE                     u1180:
  2532  0010EE  6C08               	negf	___awmod@dividend^0,c
  2533  0010F0  1E09               	comf	(___awmod@dividend+1)^0,f,c
  2534  0010F2  B0D8               	btfsc	status,0,c
  2535  0010F4  2A09               	incf	(___awmod@dividend+1)^0,f,c
  2536  0010F6  0E01               	movlw	1
  2537  0010F8  6E0D               	movwf	___awmod@sign^0,c
  2538  0010FA                     l1498:
  2539  0010FA  BE0B               	btfsc	(___awmod@divisor+1)^0,7,c
  2540  0010FC  EF84  F008         	goto	u1190
  2541  001100  EF82  F008         	goto	u1191
  2542  001104                     u1191:
  2543  001104  EF88  F008         	goto	l1502
  2544  001108                     u1190:
  2545  001108  6C0A               	negf	___awmod@divisor^0,c
  2546  00110A  1E0B               	comf	(___awmod@divisor+1)^0,f,c
  2547  00110C  B0D8               	btfsc	status,0,c
  2548  00110E  2A0B               	incf	(___awmod@divisor+1)^0,f,c
  2549  001110                     l1502:
  2550  001110  500A               	movf	___awmod@divisor^0,w,c
  2551  001112  100B               	iorwf	(___awmod@divisor+1)^0,w,c
  2552  001114  B4D8               	btfsc	status,2,c
  2553  001116  EF8F  F008         	goto	u1201
  2554  00111A  EF91  F008         	goto	u1200
  2555  00111E                     u1201:
  2556  00111E  EFB5  F008         	goto	l1518
  2557  001122                     u1200:
  2558  001122  0E01               	movlw	1
  2559  001124  6E0C               	movwf	___awmod@counter^0,c
  2560  001126  EF99  F008         	goto	l1508
  2561  00112A                     l1506:
  2562  00112A  90D8               	bcf	status,0,c
  2563  00112C  360A               	rlcf	___awmod@divisor^0,f,c
  2564  00112E  360B               	rlcf	(___awmod@divisor+1)^0,f,c
  2565  001130  2A0C               	incf	___awmod@counter^0,f,c
  2566  001132                     l1508:
  2567  001132  AE0B               	btfss	(___awmod@divisor+1)^0,7,c
  2568  001134  EF9E  F008         	goto	u1211
  2569  001138  EFA0  F008         	goto	u1210
  2570  00113C                     u1211:
  2571  00113C  EF95  F008         	goto	l1506
  2572  001140                     u1210:
  2573  001140                     l1510:
  2574  001140  500A               	movf	___awmod@divisor^0,w,c
  2575  001142  5C08               	subwf	___awmod@dividend^0,w,c
  2576  001144  500B               	movf	(___awmod@divisor+1)^0,w,c
  2577  001146  5809               	subwfb	(___awmod@dividend+1)^0,w,c
  2578  001148  A0D8               	btfss	status,0,c
  2579  00114A  EFA9  F008         	goto	u1221
  2580  00114E  EFAB  F008         	goto	u1220
  2581  001152                     u1221:
  2582  001152  EFAF  F008         	goto	l1514
  2583  001156                     u1220:
  2584  001156  500A               	movf	___awmod@divisor^0,w,c
  2585  001158  5E08               	subwf	___awmod@dividend^0,f,c
  2586  00115A  500B               	movf	(___awmod@divisor+1)^0,w,c
  2587  00115C  5A09               	subwfb	(___awmod@dividend+1)^0,f,c
  2588  00115E                     l1514:
  2589  00115E  90D8               	bcf	status,0,c
  2590  001160  320B               	rrcf	(___awmod@divisor+1)^0,f,c
  2591  001162  320A               	rrcf	___awmod@divisor^0,f,c
  2592  001164  2E0C               	decfsz	___awmod@counter^0,f,c
  2593  001166  EFA0  F008         	goto	l1510
  2594  00116A                     l1518:
  2595  00116A  500D               	movf	___awmod@sign^0,w,c
  2596  00116C  B4D8               	btfsc	status,2,c
  2597  00116E  EFBB  F008         	goto	u1231
  2598  001172  EFBD  F008         	goto	u1230
  2599  001176                     u1231:
  2600  001176  EFC1  F008         	goto	l1522
  2601  00117A                     u1230:
  2602  00117A  6C08               	negf	___awmod@dividend^0,c
  2603  00117C  1E09               	comf	(___awmod@dividend+1)^0,f,c
  2604  00117E  B0D8               	btfsc	status,0,c
  2605  001180  2A09               	incf	(___awmod@dividend+1)^0,f,c
  2606  001182                     l1522:
  2607  001182  C008  F008         	movff	___awmod@dividend,?___awmod
  2608  001186  C009  F009         	movff	___awmod@dividend+1,?___awmod+1
  2609  00118A  0012               	return		;funcret
  2610  00118C                     __end_of___awmod:
  2611                           	callstack 0
  2612                           
  2613 ;; *************** function ___awdiv *****************
  2614 ;; Defined at:
  2615 ;;		line 7 in file "C:\Program Files\Microchip\xc8\v2.32\pic\sources\c99\common\awdiv.c"
  2616 ;; Parameters:    Size  Location     Type
  2617 ;;  dividend        2    7[COMRAM] int 
  2618 ;;  divisor         2    9[COMRAM] int 
  2619 ;; Auto vars:     Size  Location     Type
  2620 ;;  quotient        2   13[COMRAM] int 
  2621 ;;  sign            1   12[COMRAM] unsigned char 
  2622 ;;  counter         1   11[COMRAM] unsigned char 
  2623 ;; Return value:  Size  Location     Type
  2624 ;;                  2    7[COMRAM] int 
  2625 ;; Registers used:
  2626 ;;		wreg, status,2, status,0
  2627 ;; Tracked objects:
  2628 ;;		On entry : 0/0
  2629 ;;		On exit  : 0/0
  2630 ;;		Unchanged: 0/0
  2631 ;; Data sizes:     COMRAM   BANK0   BANK1   BANK2   BANK3   BANK4   BANK5
  2632 ;;      Params:         4       0       0       0       0       0       0
  2633 ;;      Locals:         4       0       0       0       0       0       0
  2634 ;;      Temps:          0       0       0       0       0       0       0
  2635 ;;      Totals:         8       0       0       0       0       0       0
  2636 ;;Total ram usage:        8 bytes
  2637 ;; Hardware stack levels used: 1
  2638 ;; Hardware stack levels required when called: 1
  2639 ;; This function calls:
  2640 ;;		Nothing
  2641 ;; This function is called by:
  2642 ;;		_main
  2643 ;; This function uses a non-reentrant model
  2644 ;;
  2645                           
  2646                           	psect	text7
  2647  001018                     __ptext7:
  2648                           	callstack 0
  2649  001018                     ___awdiv:
  2650                           	callstack 29
  2651  001018  0E00               	movlw	0
  2652  00101A  6E0D               	movwf	___awdiv@sign^0,c
  2653  00101C  BE0B               	btfsc	(___awdiv@divisor+1)^0,7,c
  2654  00101E  EF15  F008         	goto	u1120
  2655  001022  EF13  F008         	goto	u1121
  2656  001026                     u1121:
  2657  001026  EF1B  F008         	goto	l1454
  2658  00102A                     u1120:
  2659  00102A  6C0A               	negf	___awdiv@divisor^0,c
  2660  00102C  1E0B               	comf	(___awdiv@divisor+1)^0,f,c
  2661  00102E  B0D8               	btfsc	status,0,c
  2662  001030  2A0B               	incf	(___awdiv@divisor+1)^0,f,c
  2663  001032  0E01               	movlw	1
  2664  001034  6E0D               	movwf	___awdiv@sign^0,c
  2665  001036                     l1454:
  2666  001036  BE09               	btfsc	(___awdiv@dividend+1)^0,7,c
  2667  001038  EF22  F008         	goto	u1130
  2668  00103C  EF20  F008         	goto	u1131
  2669  001040                     u1131:
  2670  001040  EF28  F008         	goto	l1460
  2671  001044                     u1130:
  2672  001044  6C08               	negf	___awdiv@dividend^0,c
  2673  001046  1E09               	comf	(___awdiv@dividend+1)^0,f,c
  2674  001048  B0D8               	btfsc	status,0,c
  2675  00104A  2A09               	incf	(___awdiv@dividend+1)^0,f,c
  2676  00104C  0E01               	movlw	1
  2677  00104E  1A0D               	xorwf	___awdiv@sign^0,f,c
  2678  001050                     l1460:
  2679  001050  0E00               	movlw	0
  2680  001052  6E0F               	movwf	(___awdiv@quotient+1)^0,c
  2681  001054  0E00               	movlw	0
  2682  001056  6E0E               	movwf	___awdiv@quotient^0,c
  2683  001058  500A               	movf	___awdiv@divisor^0,w,c
  2684  00105A  100B               	iorwf	(___awdiv@divisor+1)^0,w,c
  2685  00105C  B4D8               	btfsc	status,2,c
  2686  00105E  EF33  F008         	goto	u1141
  2687  001062  EF35  F008         	goto	u1140
  2688  001066                     u1141:
  2689  001066  EF5D  F008         	goto	l1482
  2690  00106A                     u1140:
  2691  00106A  0E01               	movlw	1
  2692  00106C  6E0C               	movwf	___awdiv@counter^0,c
  2693  00106E  EF3D  F008         	goto	l1468
  2694  001072                     l1466:
  2695  001072  90D8               	bcf	status,0,c
  2696  001074  360A               	rlcf	___awdiv@divisor^0,f,c
  2697  001076  360B               	rlcf	(___awdiv@divisor+1)^0,f,c
  2698  001078  2A0C               	incf	___awdiv@counter^0,f,c
  2699  00107A                     l1468:
  2700  00107A  AE0B               	btfss	(___awdiv@divisor+1)^0,7,c
  2701  00107C  EF42  F008         	goto	u1151
  2702  001080  EF44  F008         	goto	u1150
  2703  001084                     u1151:
  2704  001084  EF39  F008         	goto	l1466
  2705  001088                     u1150:
  2706  001088                     l1470:
  2707  001088  90D8               	bcf	status,0,c
  2708  00108A  360E               	rlcf	___awdiv@quotient^0,f,c
  2709  00108C  360F               	rlcf	(___awdiv@quotient+1)^0,f,c
  2710  00108E  500A               	movf	___awdiv@divisor^0,w,c
  2711  001090  5C08               	subwf	___awdiv@dividend^0,w,c
  2712  001092  500B               	movf	(___awdiv@divisor+1)^0,w,c
  2713  001094  5809               	subwfb	(___awdiv@dividend+1)^0,w,c
  2714  001096  A0D8               	btfss	status,0,c
  2715  001098  EF50  F008         	goto	u1161
  2716  00109C  EF52  F008         	goto	u1160
  2717  0010A0                     u1161:
  2718  0010A0  EF57  F008         	goto	l1478
  2719  0010A4                     u1160:
  2720  0010A4  500A               	movf	___awdiv@divisor^0,w,c
  2721  0010A6  5E08               	subwf	___awdiv@dividend^0,f,c
  2722  0010A8  500B               	movf	(___awdiv@divisor+1)^0,w,c
  2723  0010AA  5A09               	subwfb	(___awdiv@dividend+1)^0,f,c
  2724  0010AC  800E               	bsf	___awdiv@quotient^0,0,c
  2725  0010AE                     l1478:
  2726  0010AE  90D8               	bcf	status,0,c
  2727  0010B0  320B               	rrcf	(___awdiv@divisor+1)^0,f,c
  2728  0010B2  320A               	rrcf	___awdiv@divisor^0,f,c
  2729  0010B4  2E0C               	decfsz	___awdiv@counter^0,f,c
  2730  0010B6  EF44  F008         	goto	l1470
  2731  0010BA                     l1482:
  2732  0010BA  500D               	movf	___awdiv@sign^0,w,c
  2733  0010BC  B4D8               	btfsc	status,2,c
  2734  0010BE  EF63  F008         	goto	u1171
  2735  0010C2  EF65  F008         	goto	u1170
  2736  0010C6                     u1171:
  2737  0010C6  EF69  F008         	goto	l1486
  2738  0010CA                     u1170:
  2739  0010CA  6C0E               	negf	___awdiv@quotient^0,c
  2740  0010CC  1E0F               	comf	(___awdiv@quotient+1)^0,f,c
  2741  0010CE  B0D8               	btfsc	status,0,c
  2742  0010D0  2A0F               	incf	(___awdiv@quotient+1)^0,f,c
  2743  0010D2                     l1486:
  2744  0010D2  C00E  F008         	movff	___awdiv@quotient,?___awdiv
  2745  0010D6  C00F  F009         	movff	___awdiv@quotient+1,?___awdiv+1
  2746  0010DA  0012               	return		;funcret
  2747  0010DC                     __end_of___awdiv:
  2748                           	callstack 0
  2749                           
  2750 ;; *************** function _interrupt_PIC *****************
  2751 ;; Defined at:
  2752 ;;		line 24 in file "main.c"
  2753 ;; Parameters:    Size  Location     Type
  2754 ;;		None
  2755 ;; Auto vars:     Size  Location     Type
  2756 ;;		None
  2757 ;; Return value:  Size  Location     Type
  2758 ;;                  1    wreg      void 
  2759 ;; Registers used:
  2760 ;;		wreg, fsr2l, fsr2h, status,2, status,0, prodl, prodh
  2761 ;; Tracked objects:
  2762 ;;		On entry : 0/0
  2763 ;;		On exit  : 0/0
  2764 ;;		Unchanged: 0/0
  2765 ;; Data sizes:     COMRAM   BANK0   BANK1   BANK2   BANK3   BANK4   BANK5
  2766 ;;      Params:         0       0       0       0       0       0       0
  2767 ;;      Locals:         0       0       0       0       0       0       0
  2768 ;;      Temps:          7       0       0       0       0       0       0
  2769 ;;      Totals:         7       0       0       0       0       0       0
  2770 ;;Total ram usage:        7 bytes
  2771 ;; Hardware stack levels used: 1
  2772 ;; This function calls:
  2773 ;;		Nothing
  2774 ;; This function is called by:
  2775 ;;		Interrupt level 2
  2776 ;; This function uses a non-reentrant model
  2777 ;;
  2778                           
  2779                           	psect	intcode
  2780  000008                     __pintcode:
  2781                           	callstack 0
  2782  000008                     _interrupt_PIC:
  2783                           	callstack 29
  2784                           
  2785                           ;incstack = 0
  2786  000008  824A               	bsf	int$flags,1,c	;set compiler interrupt flag (level 2)
  2787  00000A  EDCE  F006         	call	int_func,f	;refresh shadow registers
  2788                           
  2789                           	psect	intcode_body
  2790  000D9C                     __pintcode_body:
  2791                           	callstack 29
  2792  000D9C                     int_func:
  2793                           	callstack 29
  2794  000D9C  0006               	pop		; remove dummy address from shadow register refresh
  2795  000D9E  CFD9 F004          	movff	fsr2l,??_interrupt_PIC+3
  2796  000DA2  CFDA F005          	movff	fsr2h,??_interrupt_PIC+4
  2797  000DA6  CFF3 F006          	movff	prodl,??_interrupt_PIC+5
  2798  000DAA  CFF4 F007          	movff	prodh,??_interrupt_PIC+6
  2799  000DAE                     
  2800                           ;main.c: 29:             PORTBbits.RB2 = 0x01;
  2801  000DAE  A4F2               	btfss	242,2,c	;volatile
  2802  000DB0  EFDC  F006         	goto	i2u42_41
  2803  000DB4  EFDE  F006         	goto	i2u42_40
  2804  000DB8                     i2u42_41:
  2805  000DB8  EF02  F008         	goto	i2l57
  2806  000DBC                     i2u42_40:
  2807  000DBC                     
  2808                           ;main.c: 30:         };main.c: 32:             PORTBbits.RB0 = 0x01;
  2809  000DBC  0E00               	movlw	0
  2810  000DBE  6E83               	movwf	131,c	;volatile
  2811                           
  2812                           ;main.c: 34:             PORTBbits.RB2 = 0x00;
  2813  000DC0  502E               	movf	_linha^0,w,c
  2814  000DC2  A4D8               	btfss	status,2,c
  2815  000DC4  EFE6  F006         	goto	i2u43_41
  2816  000DC8  EFE8  F006         	goto	i2u43_40
  2817  000DCC                     i2u43_41:
  2818  000DCC  EFED  F006         	goto	i2l1038
  2819  000DD0                     i2u43_40:
  2820  000DD0                     
  2821                           ;main.c: 35:         }
  2822  000DD0  9081               	bcf	129,0,c	;volatile
  2823                           
  2824                           ;main.c: 36: 
  2825  000DD2  8281               	bsf	129,1,c	;volatile
  2826                           
  2827                           ;main.c: 37: 
  2828  000DD4  8481               	bsf	129,2,c	;volatile
  2829                           
  2830                           ;main.c: 38:         PORTDbits.RD0 = vermelho[linha][0] | (cursor[linha][0] & pisca & co
      +                          r);
  2831  000DD6  EF06  F007         	goto	i2l1046
  2832  000DDA                     i2l1038:
  2833  000DDA  042E               	decf	_linha^0,w,c
  2834  000DDC  A4D8               	btfss	status,2,c
  2835  000DDE  EFF3  F006         	goto	i2u44_41
  2836  000DE2  EFF5  F006         	goto	i2u44_40
  2837  000DE6                     i2u44_41:
  2838  000DE6  EFFA  F006         	goto	i2l1042
  2839  000DEA                     i2u44_40:
  2840  000DEA                     
  2841                           ;main.c: 40:         PORTDbits.RD2 = vermelho[linha][2] | (cursor[linha][2] & pisca & co
      +                          r);
  2842  000DEA  8081               	bsf	129,0,c	;volatile
  2843                           
  2844                           ;main.c: 41:         PORTDbits.RD3 = verde[linha][0] | (cursor[linha][0] & pisca & !cor)
      +                          ;
  2845  000DEC  9281               	bcf	129,1,c	;volatile
  2846                           
  2847                           ;main.c: 42:         PORTDbits.RD4 = verde[linha][1] | (cursor[linha][1] & pisca & !cor)
      +                          ;
  2848  000DEE  8481               	bsf	129,2,c	;volatile
  2849                           
  2850                           ;main.c: 43:         PORTDbits.RD5 = verde[linha][2] | (cursor[linha][2] & pisca & !cor)
      +                          ;
  2851  000DF0  EF06  F007         	goto	i2l1046
  2852  000DF4                     i2l1042:
  2853  000DF4  0E02               	movlw	2
  2854  000DF6  182E               	xorwf	_linha^0,w,c
  2855  000DF8  A4D8               	btfss	status,2,c
  2856  000DFA  EF01  F007         	goto	i2u45_41
  2857  000DFE  EF03  F007         	goto	i2u45_40
  2858  000E02                     i2u45_41:
  2859  000E02  EF06  F007         	goto	i2l1046
  2860  000E06                     i2u45_40:
  2861  000E06                     
  2862                           ;main.c: 45: 
  2863  000E06  8081               	bsf	129,0,c	;volatile
  2864                           
  2865                           ;main.c: 46: 
  2866  000E08  8281               	bsf	129,1,c	;volatile
  2867                           
  2868                           ;main.c: 47:         linha++;
  2869  000E0A  9481               	bcf	129,2,c	;volatile
  2870  000E0C                     i2l1046:
  2871                           
  2872                           ;main.c: 51: 
  2873  000E0C  502E               	movf	_linha^0,w,c
  2874  000E0E  0D03               	mullw	3
  2875  000E10  0E38               	movlw	low _vermelho
  2876  000E12  24F3               	addwf	243,w,c
  2877  000E14  6ED9               	movwf	fsr2l,c
  2878  000E16  0E00               	movlw	high _vermelho
  2879  000E18  20F4               	addwfc	prodh,w,c
  2880  000E1A  6EDA               	movwf	fsr2h,c
  2881  000E1C  50DF               	movf	indf2,w,c
  2882  000E1E  6E01               	movwf	??_interrupt_PIC^0,c
  2883  000E20  502E               	movf	_linha^0,w,c
  2884  000E22  0D03               	mullw	3
  2885  000E24  0E2F               	movlw	low _cursor
  2886  000E26  24F3               	addwf	243,w,c
  2887  000E28  6ED9               	movwf	fsr2l,c
  2888  000E2A  0E00               	movlw	high _cursor
  2889  000E2C  20F4               	addwfc	prodh,w,c
  2890  000E2E  6EDA               	movwf	fsr2h,c
  2891  000E30  50DF               	movf	indf2,w,c
  2892  000E32  1429               	andwf	_pisca^0,w,c
  2893  000E34  142C               	andwf	_cor^0,w,c
  2894  000E36  1001               	iorwf	??_interrupt_PIC^0,w,c
  2895  000E38  6E02               	movwf	(??_interrupt_PIC+1)^0,c
  2896  000E3A  5083               	movf	131,w,c	;volatile
  2897  000E3C  1802               	xorwf	(??_interrupt_PIC+1)^0,w,c
  2898  000E3E  0BFE               	andlw	-2
  2899  000E40  1802               	xorwf	(??_interrupt_PIC+1)^0,w,c
  2900  000E42  6E83               	movwf	131,c	;volatile
  2901                           
  2902                           ;main.c: 52: 
  2903  000E44  502E               	movf	_linha^0,w,c
  2904  000E46  0D03               	mullw	3
  2905  000E48  0E39               	movlw	low (_vermelho+1)
  2906  000E4A  24F3               	addwf	243,w,c
  2907  000E4C  6ED9               	movwf	fsr2l,c
  2908  000E4E  0E00               	movlw	high (_vermelho+1)
  2909  000E50  20F4               	addwfc	prodh,w,c
  2910  000E52  6EDA               	movwf	fsr2h,c
  2911  000E54  50DF               	movf	indf2,w,c
  2912  000E56  6E01               	movwf	??_interrupt_PIC^0,c
  2913  000E58  502E               	movf	_linha^0,w,c
  2914  000E5A  0D03               	mullw	3
  2915  000E5C  0E30               	movlw	low (_cursor+1)
  2916  000E5E  24F3               	addwf	243,w,c
  2917  000E60  6ED9               	movwf	fsr2l,c
  2918  000E62  0E00               	movlw	high (_cursor+1)
  2919  000E64  20F4               	addwfc	prodh,w,c
  2920  000E66  6EDA               	movwf	fsr2h,c
  2921  000E68  50DF               	movf	indf2,w,c
  2922  000E6A  1429               	andwf	_pisca^0,w,c
  2923  000E6C  142C               	andwf	_cor^0,w,c
  2924  000E6E  1001               	iorwf	??_interrupt_PIC^0,w,c
  2925  000E70  6E02               	movwf	(??_interrupt_PIC+1)^0,c
  2926  000E72  4602               	rlncf	(??_interrupt_PIC+1)^0,f,c
  2927  000E74  5083               	movf	131,w,c	;volatile
  2928  000E76  1802               	xorwf	(??_interrupt_PIC+1)^0,w,c
  2929  000E78  0BFD               	andlw	-3
  2930  000E7A  1802               	xorwf	(??_interrupt_PIC+1)^0,w,c
  2931  000E7C  6E83               	movwf	131,c	;volatile
  2932                           
  2933                           ;main.c: 53:         conta++;
  2934  000E7E  502E               	movf	_linha^0,w,c
  2935  000E80  0D03               	mullw	3
  2936  000E82  0E3A               	movlw	low (_vermelho+2)
  2937  000E84  24F3               	addwf	243,w,c
  2938  000E86  6ED9               	movwf	fsr2l,c
  2939  000E88  0E00               	movlw	high (_vermelho+2)
  2940  000E8A  20F4               	addwfc	prodh,w,c
  2941  000E8C  6EDA               	movwf	fsr2h,c
  2942  000E8E  50DF               	movf	indf2,w,c
  2943  000E90  6E01               	movwf	??_interrupt_PIC^0,c
  2944  000E92  502E               	movf	_linha^0,w,c
  2945  000E94  0D03               	mullw	3
  2946  000E96  0E31               	movlw	low (_cursor+2)
  2947  000E98  24F3               	addwf	243,w,c
  2948  000E9A  6ED9               	movwf	fsr2l,c
  2949  000E9C  0E00               	movlw	high (_cursor+2)
  2950  000E9E  20F4               	addwfc	prodh,w,c
  2951  000EA0  6EDA               	movwf	fsr2h,c
  2952  000EA2  50DF               	movf	indf2,w,c
  2953  000EA4  1429               	andwf	_pisca^0,w,c
  2954  000EA6  142C               	andwf	_cor^0,w,c
  2955  000EA8  1001               	iorwf	??_interrupt_PIC^0,w,c
  2956  000EAA  6E02               	movwf	(??_interrupt_PIC+1)^0,c
  2957  000EAC  4602               	rlncf	(??_interrupt_PIC+1)^0,f,c
  2958  000EAE  4602               	rlncf	(??_interrupt_PIC+1)^0,f,c
  2959  000EB0  5083               	movf	131,w,c	;volatile
  2960  000EB2  1802               	xorwf	(??_interrupt_PIC+1)^0,w,c
  2961  000EB4  0BFB               	andlw	-5
  2962  000EB6  1802               	xorwf	(??_interrupt_PIC+1)^0,w,c
  2963  000EB8  6E83               	movwf	131,c	;volatile
  2964                           
  2965                           ;main.c: 54:         if(conta == 100)
  2966  000EBA  502E               	movf	_linha^0,w,c
  2967  000EBC  0D03               	mullw	3
  2968  000EBE  0E41               	movlw	low _verde
  2969  000EC0  24F3               	addwf	243,w,c
  2970  000EC2  6ED9               	movwf	fsr2l,c
  2971  000EC4  0E00               	movlw	high _verde
  2972  000EC6  20F4               	addwfc	prodh,w,c
  2973  000EC8  6EDA               	movwf	fsr2h,c
  2974  000ECA  50DF               	movf	indf2,w,c
  2975  000ECC  6E01               	movwf	??_interrupt_PIC^0,c
  2976  000ECE  502E               	movf	_linha^0,w,c
  2977  000ED0  0D03               	mullw	3
  2978  000ED2  0E2F               	movlw	low _cursor
  2979  000ED4  24F3               	addwf	243,w,c
  2980  000ED6  6ED9               	movwf	fsr2l,c
  2981  000ED8  0E00               	movlw	high _cursor
  2982  000EDA  20F4               	addwfc	prodh,w,c
  2983  000EDC  6EDA               	movwf	fsr2h,c
  2984  000EDE  50DF               	movf	indf2,w,c
  2985  000EE0  6E02               	movwf	(??_interrupt_PIC+1)^0,c
  2986  000EE2  502C               	movf	_cor^0,w,c
  2987  000EE4  B4D8               	btfsc	status,2,c
  2988  000EE6  EF77  F007         	goto	i2u46_41
  2989  000EEA  EF7A  F007         	goto	i2u46_40
  2990  000EEE                     i2u46_41:
  2991  000EEE  0E01               	movlw	1
  2992  000EF0  EF7B  F007         	goto	i2u47_40
  2993  000EF4                     i2u46_40:
  2994  000EF4  0E00               	movlw	0
  2995  000EF6                     i2u47_40:
  2996  000EF6  1402               	andwf	(??_interrupt_PIC+1)^0,w,c
  2997  000EF8  1429               	andwf	_pisca^0,w,c
  2998  000EFA  1001               	iorwf	??_interrupt_PIC^0,w,c
  2999  000EFC  6E03               	movwf	(??_interrupt_PIC+2)^0,c
  3000  000EFE  4603               	rlncf	(??_interrupt_PIC+2)^0,f,c
  3001  000F00  4603               	rlncf	(??_interrupt_PIC+2)^0,f,c
  3002  000F02  4603               	rlncf	(??_interrupt_PIC+2)^0,f,c
  3003  000F04  5083               	movf	131,w,c	;volatile
  3004  000F06  1803               	xorwf	(??_interrupt_PIC+2)^0,w,c
  3005  000F08  0BF7               	andlw	-9
  3006  000F0A  1803               	xorwf	(??_interrupt_PIC+2)^0,w,c
  3007  000F0C  6E83               	movwf	131,c	;volatile
  3008                           
  3009                           ;main.c: 55:         {
  3010  000F0E  502E               	movf	_linha^0,w,c
  3011  000F10  0D03               	mullw	3
  3012  000F12  0E42               	movlw	low (_verde+1)
  3013  000F14  24F3               	addwf	243,w,c
  3014  000F16  6ED9               	movwf	fsr2l,c
  3015  000F18  0E00               	movlw	high (_verde+1)
  3016  000F1A  20F4               	addwfc	prodh,w,c
  3017  000F1C  6EDA               	movwf	fsr2h,c
  3018  000F1E  50DF               	movf	indf2,w,c
  3019  000F20  6E01               	movwf	??_interrupt_PIC^0,c
  3020  000F22  502E               	movf	_linha^0,w,c
  3021  000F24  0D03               	mullw	3
  3022  000F26  0E30               	movlw	low (_cursor+1)
  3023  000F28  24F3               	addwf	243,w,c
  3024  000F2A  6ED9               	movwf	fsr2l,c
  3025  000F2C  0E00               	movlw	high (_cursor+1)
  3026  000F2E  20F4               	addwfc	prodh,w,c
  3027  000F30  6EDA               	movwf	fsr2h,c
  3028  000F32  50DF               	movf	indf2,w,c
  3029  000F34  6E02               	movwf	(??_interrupt_PIC+1)^0,c
  3030  000F36  502C               	movf	_cor^0,w,c
  3031  000F38  B4D8               	btfsc	status,2,c
  3032  000F3A  EFA1  F007         	goto	i2u48_41
  3033  000F3E  EFA4  F007         	goto	i2u48_40
  3034  000F42                     i2u48_41:
  3035  000F42  0E01               	movlw	1
  3036  000F44  EFA5  F007         	goto	i2u49_40
  3037  000F48                     i2u48_40:
  3038  000F48  0E00               	movlw	0
  3039  000F4A                     i2u49_40:
  3040  000F4A  1402               	andwf	(??_interrupt_PIC+1)^0,w,c
  3041  000F4C  1429               	andwf	_pisca^0,w,c
  3042  000F4E  1001               	iorwf	??_interrupt_PIC^0,w,c
  3043  000F50  6E03               	movwf	(??_interrupt_PIC+2)^0,c
  3044  000F52  3A03               	swapf	(??_interrupt_PIC+2)^0,f,c
  3045  000F54  5083               	movf	131,w,c	;volatile
  3046  000F56  1803               	xorwf	(??_interrupt_PIC+2)^0,w,c
  3047  000F58  0BEF               	andlw	-17
  3048  000F5A  1803               	xorwf	(??_interrupt_PIC+2)^0,w,c
  3049  000F5C  6E83               	movwf	131,c	;volatile
  3050                           
  3051                           ;main.c: 56:             conta = 0;
  3052  000F5E  502E               	movf	_linha^0,w,c
  3053  000F60  0D03               	mullw	3
  3054  000F62  0E43               	movlw	low (_verde+2)
  3055  000F64  24F3               	addwf	243,w,c
  3056  000F66  6ED9               	movwf	fsr2l,c
  3057  000F68  0E00               	movlw	high (_verde+2)
  3058  000F6A  20F4               	addwfc	prodh,w,c
  3059  000F6C  6EDA               	movwf	fsr2h,c
  3060  000F6E  50DF               	movf	indf2,w,c
  3061  000F70  6E01               	movwf	??_interrupt_PIC^0,c
  3062  000F72  502E               	movf	_linha^0,w,c
  3063  000F74  0D03               	mullw	3
  3064  000F76  0E31               	movlw	low (_cursor+2)
  3065  000F78  24F3               	addwf	243,w,c
  3066  000F7A  6ED9               	movwf	fsr2l,c
  3067  000F7C  0E00               	movlw	high (_cursor+2)
  3068  000F7E  20F4               	addwfc	prodh,w,c
  3069  000F80  6EDA               	movwf	fsr2h,c
  3070  000F82  50DF               	movf	indf2,w,c
  3071  000F84  6E02               	movwf	(??_interrupt_PIC+1)^0,c
  3072  000F86  502C               	movf	_cor^0,w,c
  3073  000F88  B4D8               	btfsc	status,2,c
  3074  000F8A  EFC9  F007         	goto	i2u50_41
  3075  000F8E  EFCC  F007         	goto	i2u50_40
  3076  000F92                     i2u50_41:
  3077  000F92  0E01               	movlw	1
  3078  000F94  EFCD  F007         	goto	i2u51_40
  3079  000F98                     i2u50_40:
  3080  000F98  0E00               	movlw	0
  3081  000F9A                     i2u51_40:
  3082  000F9A  1402               	andwf	(??_interrupt_PIC+1)^0,w,c
  3083  000F9C  1429               	andwf	_pisca^0,w,c
  3084  000F9E  1001               	iorwf	??_interrupt_PIC^0,w,c
  3085  000FA0  6E03               	movwf	(??_interrupt_PIC+2)^0,c
  3086  000FA2  3A03               	swapf	(??_interrupt_PIC+2)^0,f,c
  3087  000FA4  4603               	rlncf	(??_interrupt_PIC+2)^0,f,c
  3088  000FA6  5083               	movf	131,w,c	;volatile
  3089  000FA8  1803               	xorwf	(??_interrupt_PIC+2)^0,w,c
  3090  000FAA  0BDF               	andlw	-33
  3091  000FAC  1803               	xorwf	(??_interrupt_PIC+2)^0,w,c
  3092  000FAE  6E83               	movwf	131,c	;volatile
  3093  000FB0                     
  3094                           ;main.c: 60:         TMR0H = 0;
  3095  000FB0  2A2E               	incf	_linha^0,f,c
  3096  000FB2                     
  3097                           ;main.c: 61:         TMR0L = 0;
  3098  000FB2  0E03               	movlw	3
  3099  000FB4  182E               	xorwf	_linha^0,w,c
  3100  000FB6  A4D8               	btfss	status,2,c
  3101  000FB8  EFE0  F007         	goto	i2u52_41
  3102  000FBC  EFE2  F007         	goto	i2u52_40
  3103  000FC0                     i2u52_41:
  3104  000FC0  EFE4  F007         	goto	i2l1054
  3105  000FC4                     i2u52_40:
  3106  000FC4                     
  3107                           ;main.c: 62:         INTCONbits.TMR0IF = 0;
  3108  000FC4  0E00               	movlw	0
  3109  000FC6  6E2E               	movwf	_linha^0,c
  3110  000FC8                     i2l1054:
  3111                           
  3112                           ;main.c: 66: void conf_interrupt(void){
  3113  000FC8  2A2D               	incf	_conta^0,f,c
  3114  000FCA                     
  3115                           ;main.c: 67: INTCONbits.INT0IF = 0;
  3116  000FCA  0E64               	movlw	100
  3117  000FCC  182D               	xorwf	_conta^0,w,c
  3118  000FCE  A4D8               	btfss	status,2,c
  3119  000FD0  EFEC  F007         	goto	i2u53_41
  3120  000FD4  EFEE  F007         	goto	i2u53_40
  3121  000FD8                     i2u53_41:
  3122  000FD8  EFFD  F007         	goto	i2l1062
  3123  000FDC                     i2u53_40:
  3124  000FDC                     
  3125                           ;main.c: 68: INTCONbits.INT0IE = 1;;main.c: 69: 
  3126  000FDC  0E00               	movlw	0
  3127  000FDE  6E2D               	movwf	_conta^0,c
  3128  000FE0                     
  3129                           ;main.c: 70: T0CONbits.T08BIT = 1;
  3130  000FE0  5029               	movf	_pisca^0,w,c
  3131  000FE2  102A               	iorwf	(_pisca+1)^0,w,c
  3132  000FE4  B4D8               	btfsc	status,2,c
  3133  000FE6  EFF7  F007         	goto	i2u54_41
  3134  000FEA  EFFA  F007         	goto	i2u54_40
  3135  000FEE                     i2u54_41:
  3136  000FEE  0E01               	movlw	1
  3137  000FF0  EFFB  F007         	goto	i2u55_40
  3138  000FF4                     i2u54_40:
  3139  000FF4  0E00               	movlw	0
  3140  000FF6                     i2u55_40:
  3141  000FF6  6E29               	movwf	_pisca^0,c
  3142  000FF8  6A2A               	clrf	(_pisca+1)^0,c
  3143  000FFA                     i2l1062:
  3144                           
  3145                           ;main.c: 73: T0CONbits.T0PS = 100;
  3146  000FFA  0E00               	movlw	0
  3147  000FFC  6ED7               	movwf	215,c	;volatile
  3148  000FFE                     
  3149                           ;main.c: 74: T0CONbits.TMR0ON = 1;
  3150  000FFE  0E00               	movlw	0
  3151  001000  6ED6               	movwf	214,c	;volatile
  3152  001002                     
  3153                           ;main.c: 75: 
  3154  001002  94F2               	bcf	242,2,c	;volatile
  3155  001004                     i2l57:
  3156  001004  C007  FFF4         	movff	??_interrupt_PIC+6,prodh
  3157  001008  C006  FFF3         	movff	??_interrupt_PIC+5,prodl
  3158  00100C  C005  FFDA         	movff	??_interrupt_PIC+4,fsr2h
  3159  001010  C004  FFD9         	movff	??_interrupt_PIC+3,fsr2l
  3160  001014  924A               	bcf	int$flags,1,c	;clear compiler interrupt flag (level 2)
  3161  001016  0011               	retfie		f
  3162  001018                     __end_of_interrupt_PIC:
  3163                           	callstack 0
  3164  0000                     
  3165                           	psect	rparam
  3166  0000                     
  3167                           	psect	temp
  3168  00004A                     btemp:
  3169                           	callstack 0
  3170  00004A                     	ds	1
  3171  0000                     int$flags	set	btemp
  3172  0000                     wtemp8	set	btemp+1
  3173  0000                     ttemp5	set	btemp+1
  3174  0000                     ttemp6	set	btemp+4
  3175  0000                     ttemp7	set	btemp+8
  3176                           
  3177                           	psect	idloc
  3178                           
  3179                           ;Config register IDLOC0 @ 0x200000
  3180                           ;	unspecified, using default values
  3181  200000                     	org	2097152
  3182  200000  FF                 	db	255
  3183                           
  3184                           ;Config register IDLOC1 @ 0x200001
  3185                           ;	unspecified, using default values
  3186  200001                     	org	2097153
  3187  200001  FF                 	db	255
  3188                           
  3189                           ;Config register IDLOC2 @ 0x200002
  3190                           ;	unspecified, using default values
  3191  200002                     	org	2097154
  3192  200002  FF                 	db	255
  3193                           
  3194                           ;Config register IDLOC3 @ 0x200003
  3195                           ;	unspecified, using default values
  3196  200003                     	org	2097155
  3197  200003  FF                 	db	255
  3198                           
  3199                           ;Config register IDLOC4 @ 0x200004
  3200                           ;	unspecified, using default values
  3201  200004                     	org	2097156
  3202  200004  FF                 	db	255
  3203                           
  3204                           ;Config register IDLOC5 @ 0x200005
  3205                           ;	unspecified, using default values
  3206  200005                     	org	2097157
  3207  200005  FF                 	db	255
  3208                           
  3209                           ;Config register IDLOC6 @ 0x200006
  3210                           ;	unspecified, using default values
  3211  200006                     	org	2097158
  3212  200006  FF                 	db	255
  3213                           
  3214                           ;Config register IDLOC7 @ 0x200007
  3215                           ;	unspecified, using default values
  3216  200007                     	org	2097159
  3217  200007  FF                 	db	255
  3218                           
  3219                           	psect	config
  3220                           
  3221                           ; Padding undefined space
  3222  300000                     	org	3145728
  3223  300000  FF                 	db	255
  3224                           
  3225                           ;Config register CONFIG1H @ 0x300001
  3226                           ;	Oscillator Selection bits
  3227                           ;	OSC = HS, HS oscillator
  3228                           ;	Fail-Safe Clock Monitor Enable bit
  3229                           ;	FCMEN = 0x0, unprogrammed default
  3230                           ;	Internal/External Oscillator Switchover bit
  3231                           ;	IESO = 0x0, unprogrammed default
  3232  300001                     	org	3145729
  3233  300001  02                 	db	2
  3234                           
  3235                           ;Config register CONFIG2L @ 0x300002
  3236                           ;	Power-up Timer Enable bit
  3237                           ;	PWRT = 0x1, unprogrammed default
  3238                           ;	Brown-out Reset Enable bits
  3239                           ;	BOREN = OFF, Brown-out Reset disabled in hardware and software
  3240                           ;	Brown Out Reset Voltage bits
  3241                           ;	BORV = 0x3, unprogrammed default
  3242  300002                     	org	3145730
  3243  300002  19                 	db	25
  3244                           
  3245                           ;Config register CONFIG2H @ 0x300003
  3246                           ;	Watchdog Timer Enable bit
  3247                           ;	WDT = OFF, WDT disabled (control is placed on the SWDTEN bit)
  3248                           ;	Watchdog Timer Postscale Select bits
  3249                           ;	WDTPS = 0xF, unprogrammed default
  3250  300003                     	org	3145731
  3251  300003  1E                 	db	30
  3252                           
  3253                           ; Padding undefined space
  3254  300004                     	org	3145732
  3255  300004  FF                 	db	255
  3256                           
  3257                           ;Config register CONFIG3H @ 0x300005
  3258                           ;	unspecified, using default values
  3259                           ;	CCP2 MUX bit
  3260                           ;	CCP2MX = 0x1, unprogrammed default
  3261                           ;	PORTB A/D Enable bit
  3262                           ;	PBADEN = 0x1, unprogrammed default
  3263                           ;	Low-Power Timer1 Oscillator Enable bit
  3264                           ;	LPT1OSC = 0x0, unprogrammed default
  3265                           ;	MCLR Pin Enable bit
  3266                           ;	MCLRE = 0x1, unprogrammed default
  3267  300005                     	org	3145733
  3268  300005  83                 	db	131
  3269                           
  3270                           ;Config register CONFIG4L @ 0x300006
  3271                           ;	unspecified, using default values
  3272                           ;	Stack Full/Underflow Reset Enable bit
  3273                           ;	STVREN = 0x1, unprogrammed default
  3274                           ;	Single-Supply ICSP Enable bit
  3275                           ;	LVP = 0x1, unprogrammed default
  3276                           ;	Extended Instruction Set Enable bit
  3277                           ;	XINST = 0x0, unprogrammed default
  3278                           ;	Background Debugger Enable bit
  3279                           ;	DEBUG = 0x1, unprogrammed default
  3280  300006                     	org	3145734
  3281  300006  85                 	db	133
  3282                           
  3283                           ; Padding undefined space
  3284  300007                     	org	3145735
  3285  300007  FF                 	db	255
  3286                           
  3287                           ;Config register CONFIG5L @ 0x300008
  3288                           ;	unspecified, using default values
  3289                           ;	Code Protection bit
  3290                           ;	CP0 = 0x1, unprogrammed default
  3291                           ;	Code Protection bit
  3292                           ;	CP1 = 0x1, unprogrammed default
  3293                           ;	Code Protection bit
  3294                           ;	CP2 = 0x1, unprogrammed default
  3295                           ;	Code Protection bit
  3296                           ;	CP3 = 0x1, unprogrammed default
  3297  300008                     	org	3145736
  3298  300008  0F                 	db	15
  3299                           
  3300                           ;Config register CONFIG5H @ 0x300009
  3301                           ;	unspecified, using default values
  3302                           ;	Boot Block Code Protection bit
  3303                           ;	CPB = 0x1, unprogrammed default
  3304                           ;	Data EEPROM Code Protection bit
  3305                           ;	CPD = 0x1, unprogrammed default
  3306  300009                     	org	3145737
  3307  300009  C0                 	db	192
  3308                           
  3309                           ;Config register CONFIG6L @ 0x30000A
  3310                           ;	unspecified, using default values
  3311                           ;	Write Protection bit
  3312                           ;	WRT0 = 0x1, unprogrammed default
  3313                           ;	Write Protection bit
  3314                           ;	WRT1 = 0x1, unprogrammed default
  3315                           ;	Write Protection bit
  3316                           ;	WRT2 = 0x1, unprogrammed default
  3317                           ;	Write Protection bit
  3318                           ;	WRT3 = 0x1, unprogrammed default
  3319  30000A                     	org	3145738
  3320  30000A  0F                 	db	15
  3321                           
  3322                           ;Config register CONFIG6H @ 0x30000B
  3323                           ;	unspecified, using default values
  3324                           ;	Configuration Register Write Protection bit
  3325                           ;	WRTC = 0x1, unprogrammed default
  3326                           ;	Boot Block Write Protection bit
  3327                           ;	WRTB = 0x1, unprogrammed default
  3328                           ;	Data EEPROM Write Protection bit
  3329                           ;	WRTD = 0x1, unprogrammed default
  3330  30000B                     	org	3145739
  3331  30000B  E0                 	db	224
  3332                           
  3333                           ;Config register CONFIG7L @ 0x30000C
  3334                           ;	unspecified, using default values
  3335                           ;	Table Read Protection bit
  3336                           ;	EBTR0 = 0x1, unprogrammed default
  3337                           ;	Table Read Protection bit
  3338                           ;	EBTR1 = 0x1, unprogrammed default
  3339                           ;	Table Read Protection bit
  3340                           ;	EBTR2 = 0x1, unprogrammed default
  3341                           ;	Table Read Protection bit
  3342                           ;	EBTR3 = 0x1, unprogrammed default
  3343  30000C                     	org	3145740
  3344  30000C  0F                 	db	15
  3345                           
  3346                           ;Config register CONFIG7H @ 0x30000D
  3347                           ;	unspecified, using default values
  3348                           ;	Boot Block Table Read Protection bit
  3349                           ;	EBTRB = 0x1, unprogrammed default
  3350  30000D                     	org	3145741
  3351  30000D  40                 	db	64
  3352                           tosu	equ	0xFFF
  3353                           tosh	equ	0xFFE
  3354                           tosl	equ	0xFFD
  3355                           stkptr	equ	0xFFC
  3356                           pclatu	equ	0xFFB
  3357                           pclath	equ	0xFFA
  3358                           pcl	equ	0xFF9
  3359                           tblptru	equ	0xFF8
  3360                           tblptrh	equ	0xFF7
  3361                           tblptrl	equ	0xFF6
  3362                           tablat	equ	0xFF5
  3363                           prodh	equ	0xFF4
  3364                           prodl	equ	0xFF3
  3365                           indf0	equ	0xFEF
  3366                           postinc0	equ	0xFEE
  3367                           postdec0	equ	0xFED
  3368                           preinc0	equ	0xFEC
  3369                           plusw0	equ	0xFEB
  3370                           fsr0h	equ	0xFEA
  3371                           fsr0l	equ	0xFE9
  3372                           wreg	equ	0xFE8
  3373                           indf1	equ	0xFE7
  3374                           postinc1	equ	0xFE6
  3375                           postdec1	equ	0xFE5
  3376                           preinc1	equ	0xFE4
  3377                           plusw1	equ	0xFE3
  3378                           fsr1h	equ	0xFE2
  3379                           fsr1l	equ	0xFE1
  3380                           bsr	equ	0xFE0
  3381                           indf2	equ	0xFDF
  3382                           postinc2	equ	0xFDE
  3383                           postdec2	equ	0xFDD
  3384                           preinc2	equ	0xFDC
  3385                           plusw2	equ	0xFDB
  3386                           fsr2h	equ	0xFDA
  3387                           fsr2l	equ	0xFD9
  3388                           status	equ	0xFD8

Data Sizes:
    Strings     0
    Constant    0
    Data        0
    BSS         33
    Persistent  0
    Stack       0

Auto Spaces:
    Space          Size  Autos    Used
    COMRAM          126     40      73
    BANK0           128      0       0
    BANK1           256      0       0
    BANK2           256      0       0
    BANK3           256      0       0
    BANK4           256      0       0
    BANK5           256      0       0

Pointer List with Targets:

    limpa_matriz@matriz	PTR unsigned char [3] size(2) Largest target is 9
		 -> main@marcados(COMRAM[9]), verde(COMRAM[9]), cursor(COMRAM[9]), vermelho(COMRAM[9]), 

    testa_velha@teste2	PTR unsigned char [3] size(2) Largest target is 9
		 -> vermelho(COMRAM[9]), 

    testa_velha@teste1	PTR unsigned char [3] size(2) Largest target is 9
		 -> verde(COMRAM[9]), 

    testa_ganhou@teste	PTR unsigned char [3] size(2) Largest target is 9
		 -> verde(COMRAM[9]), vermelho(COMRAM[9]), 


Critical Paths under _main in COMRAM

    _main->___wmul
    ___wmul->___awdiv

Critical Paths under _interrupt_PIC in COMRAM

    None.

Critical Paths under _main in BANK0

    None.

Critical Paths under _interrupt_PIC in BANK0

    None.

Critical Paths under _main in BANK1

    None.

Critical Paths under _interrupt_PIC in BANK1

    None.

Critical Paths under _main in BANK2

    None.

Critical Paths under _interrupt_PIC in BANK2

    None.

Critical Paths under _main in BANK3

    None.

Critical Paths under _interrupt_PIC in BANK3

    None.

Critical Paths under _main in BANK4

    None.

Critical Paths under _interrupt_PIC in BANK4

    None.

Critical Paths under _main in BANK5

    None.

Critical Paths under _interrupt_PIC in BANK5

    None.

Call Graph Tables:

 ---------------------------------------------------------------------------------
 (Depth) Function   	        Calls       Base Space   Used Autos Params    Refs
 ---------------------------------------------------------------------------------
 (0) _main                                                20    20      0   12474
                                             21 COMRAM    19    19      0
                            ___awdiv
                            ___awmod
                             ___wmul
                     _conf_interrupt
                       _limpa_matriz
                       _testa_ganhou
                        _testa_velha
 ---------------------------------------------------------------------------------
 (1) _testa_velha                                         12     8      4     400
                                              7 COMRAM    12     8      4
 ---------------------------------------------------------------------------------
 (1) _testa_ganhou                                         2     0      2     680
                                              7 COMRAM     2     0      2
 ---------------------------------------------------------------------------------
 (1) _limpa_matriz                                         6     4      2    1526
                                              7 COMRAM     6     4      2
 ---------------------------------------------------------------------------------
 (1) _conf_interrupt                                       0     0      0       0
 ---------------------------------------------------------------------------------
 (1) ___wmul                                               6     2      4    2743
                                             15 COMRAM     6     2      4
                            ___awdiv (ARG)
 ---------------------------------------------------------------------------------
 (1) ___awmod                                              6     2      4    2880
                                              7 COMRAM     6     2      4
 ---------------------------------------------------------------------------------
 (1) ___awdiv                                              8     4      4    2884
                                              7 COMRAM     8     4      4
 ---------------------------------------------------------------------------------
 Estimated maximum stack depth 1
 ---------------------------------------------------------------------------------
 (Depth) Function   	        Calls       Base Space   Used Autos Params    Refs
 ---------------------------------------------------------------------------------
 (2) _interrupt_PIC                                        7     7      0       0
                                              0 COMRAM     7     7      0
 ---------------------------------------------------------------------------------
 Estimated maximum stack depth 2
 ---------------------------------------------------------------------------------

 Call Graph Graphs:

 _main (ROOT)
   ___awdiv
   ___awmod
   ___wmul
     ___awdiv (ARG)
   _conf_interrupt
   _limpa_matriz
   _testa_ganhou
   _testa_velha

 _interrupt_PIC (ROOT)

 Address spaces:
Name               Size   Autos  Total    Cost      Usage
BIGRAM             5FF      0       0      17        0.0%
EEDATA             100      0       0       0        0.0%
BITBANK5           100      0       0      16        0.0%
BANK5              100      0       0      14        0.0%
BITBANK4           100      0       0      12        0.0%
BANK4              100      0       0      13        0.0%
BITBANK3           100      0       0      10        0.0%
BANK3              100      0       0      11        0.0%
BITBANK2           100      0       0       8        0.0%
BANK2              100      0       0       9        0.0%
BITBANK1           100      0       0       6        0.0%
BANK1              100      0       0       7        0.0%
BITBANK0            80      0       0       4        0.0%
BANK0               80      0       0       5        0.0%
BITCOMRAM           7E      0       0       0        0.0%
COMRAM              7E     28      49       1       57.9%
BITSFR               0      0       0     200        0.0%
SFR                  0      0       0     200        0.0%
STACK                0      0       0       2        0.0%
NULL                 0      0       0       0        0.0%
ABS                  0      0      49      15        0.0%
DATA                 0      0      49       3        0.0%
CODE                 0      0       0       0        0.0%


Microchip Technology PIC18 Macro Assembler V2.32 build 20210201212658 
Symbol Table                                                                                   Wed Jun 29 10:53:03 2022

  __end_of_interrupt_PIC 1018                       l60 12B2                       l64 0D9A  
                     l87 1272                       l79 1220             ___awdiv@sign 000D  
    ___wmul@multiplicand 0012                      l127 1298                      l371 118A  
                    l358 10DA                      l800 129A                      l802 12A4  
                    l804 12AC                      u900 0BC8                      u901 0BC4  
                    u910 0BE4                      u830 0AFA                      u911 0BE0  
                    u831 0AF6                      u920 0C00                      u840 0B16  
                    u921 0BFC                      u841 0B12                      u930 0C1C  
                    u850 0B32                      u931 0C18                      u851 0B2E  
                    u940 0C38                      u860 0B54                      u941 0C34  
                    u861 0B50                      u950 0C58                      u870 0B70  
                    u951 0C54                      u871 0B6C                      u960 0C74  
                    u880 0B8C                      u961 0C70                      u881 0B88  
                    u970 0C90                      u890 0BAC                      u971 0C8C  
                    u891 0BA8                      u980 0CB0                      u981 0CAC  
                    u990 0CCC                      u991 0CC8                      _cor 002C  
           ___awmod@sign 000D                      prod 000FF3                      wreg 000FE8  
                   l1300 0AE2                     l1302 0AFA                     l1310 0B38  
                   l1312 0B54                     l1320 0B90                     l1304 0B16  
                   l1400 11E4                     l1322 0BAC                     l1330 0BE8  
                   l1314 0B70                     l1306 0B32                     l1402 11F4  
                   l1500 1108                     l1332 0C00                     l1340 0C3C  
                   l1324 0BC8                     l1404 11F6                     l1510 1140  
                   l1502 1110                     l1430 122A                     l1342 0C58  
                   l1350 0C94                     l1334 0C1C                     l1414 121E  
                   l1406 1206                     l1520 117A                     l1512 1156  
                   l1504 1122                     l1440 1274                     l1432 124E  
                   l1424 1226                     l1352 0CB0                     l1360 0CEC  
                   l1344 0C74                     l1408 1218                     l1600 022A  
                   l1450 102A                     l1522 1182                     l1514 115E  
                   l1506 112A                     l1442 1290                     l1434 1250  
                   l1418 1222                     l1362 0D04                     l1370 0D40  
                   l1354 0CCC                     l1610 02C8                     l1602 022E  
                   l1530 0022                     l1460 1050                     l1452 1032  
                   l1516 1164                     l1508 1132                     l1436 1260  
                   l1372 0D5C                     l1380 0D98                     l1364 0D20  
                   l1700 08D0                     l1620 0478                     l1612 0334  
                   l1604 023C                     l1540 0052                     l1532 002E  
                   l1470 1088                     l1462 1058                     l1454 1036  
                   l1446 1018                     l1518 116A                     l1438 1262  
                   l1374 0D78                     l1390 1194                     l1710 094E  
                   l1702 08D4                     l1630 060A                     l1622 04E4  
                   l1614 03F4                     l1606 024C                     l1550 0064  
                   l1542 0054                     l1534 003A                     l1526 0012  
                   l1480 10B4                     l1472 108E                     l1464 106A  
                   l1456 1044                     l1448 101C                     l1384 118C  
                   l1712 0960                     l1704 08DC                     l1640 0692  
                   l1632 061C                     l1624 05A4                     l1608 025C  
                   l1616 03FC                     l1560 0072                     l1552 0064  
                   l1544 0058                     l1536 0046                     l1528 0016  
                   l1474 10A4                     l1466 1072                     l1482 10BA  
                   l1458 104C                     l1490 10DC                     l1730 0A24  
                   l1722 09A2                     l1714 0978                     l1706 0934  
                   l1650 06F4                     l1642 06A2                     l1634 0620  
                   l1618 040C                     l1626 05A8                     l1570 0086  
                   l1562 0076                     l1554 0068                     l1546 005C  
                   l1538 004E                     l1484 10CA                     l1476 10AC  
                   l1468 107A                     l1492 10E0                     l1396 1198  
                   l1740 0A56                     l1724 0A06                     l1716 098A  
                   l1732 0A2C                     l1708 094C                     l1660 0772  
                   l1652 06F8                     l1644 06A6                     l1636 0680  
                   l1628 0608                     l1580 011A                     l1572 0094  
                   l1564 007A                     l1556 006C                     l1548 0060  
                   l1486 10D2                     l1478 10AE                     l1494 10EE  
                   l1398 11E2                     l1750 0ACA                     l1742 0A5A  
                   l1734 0A42                     l1726 0A1E                     l1718 098E  
                   l1662 0784                     l1654 0700                     l1646 06C2  
                   l1638 0684                     l1590 0198                     l1582 011E  
                   l1574 00A4                     l1566 007E                     l1558 006E  
                   l1496 10F6                     l1752 0ACE                     l1736 0A4E  
                   l1744 0A5E                     l1680 0848                     l1672 07C6  
                   l1664 079C                     l1656 0758                     l1648 06F2  
                   l1592 01A8                     l1584 0124                     l1576 00A8  
                   l1568 0082                     l1498 10FA                     l1754 0AD2  
                   l1746 0A82                     l1738 0A52                     l1690 087A  
                   l1674 082A                     l1666 07AE                     l1682 0850  
                   l1658 0770                     l1594 0208                     l1578 0108  
                   l1756 0AD6                     l1748 0AB2                     l1692 087E  
                   l1684 0866                     l1676 0842                     l1668 07B2  
                   l1588 0194                     l1596 020C                     l1686 0872  
                   l1694 0882                     l1598 021A                     l1696 089E  
                   l1688 0876                     l1698 08CE                     u1000 0CE8  
                   u1001 0CE4                     u1010 0D04                     u1011 0D00  
                   u1100 1260                     u1020 0D20                     u1101 125C  
                   u1021 0D1C                     u1110 1272                     u1030 0D3C  
                   u1111 126E                     u1031 0D38                     u1120 102A  
                   u1200 1122                     u1040 0D5C                     u1121 1026  
                   u1201 111E                     u1041 0D58                     u1130 1044  
                   u1210 1140                     u1050 0D78                     u1131 1040  
                   u1211 113C                     u1051 0D74                     u1140 106A  
                   u1220 1156                     u1060 0D94                     u1300 022A  
                   u1141 1066                     u1221 1152                     u1061 0D90  
                   u1301 0226                     u1150 1088                     u1230 117A  
                   u1070 11F4                     u1310 023C                     u1151 1084  
                   u1231 1176                     u1071 11F0                     u1311 0238  
                   u1160 10A4                     u1080 1206                     u1400 0692  
                   u1320 024C                     u1240 0094                     u1161 10A0  
                   u1081 1202                     u1401 068E                     u1321 0248  
                   u1241 0090                     u1170 10CA                     u1090 1218  
                   u1410 06A2                     u1330 025C                     u1250 00A4  
                   u1171 10C6                     u1091 1214                     u1411 069E  
                   u1331 0258                     u1251 00A0                     u1180 10EE  
                   u1500 0A82                     u1420 06C2                     u1340 02C8  
                   u1260 011A                     u1181 10EA                     u1501 0A7E  
                   u1421 06BE                     u1341 02C4                     u1261 0116  
                   u1190 1108                     u1430 0784                     u1350 0334  
                   u1270 0190                     u1191 1104                     u1431 0780  
                   u1351 0330                     u1271 018C                     u1440 07AE  
                   u1360 040C                     u1280 01A8                     u1441 07AA  
                   u1361 0408                     u1281 01A4                     u1450 07C2  
                   u1370 0478                     u1290 021A                     u1451 07BE  
                   u1371 0474                     u1291 0216                     u1460 089E  
                   u1380 04E4                     u1461 089A                     u1517 0762  
                   u1381 04E0                     u1470 0960                     u1390 061C  
                   u1471 095C                     u1527 078E                     u1391 0618  
                   u1480 098A                     u1481 0986                     u1537 0834  
                   u1490 099E                     u1491 099A                     u1547 085A  
                   u1557 093E                     u1567 096A                     u1577 0A10  
                   u1587 0A36                     u1597 0ABC                     i2l57 1004  
           testa_velha@i 0012             testa_velha@j 0013                     _cont 002B  
                   _main 0012                     fsr2h 000FDA                     indf2 000FDF  
                   fsr2l 000FD9                     btemp 004A              main@posicao 0028  
                   prodh 000FF4                     prodl 000FF3                     start 000E  
           ___param_bank 000000                    ?_main 0001          __end_of___awdiv 10DC  
        __end_of___awmod 118C                    _CMCON 000FB4          ___awdiv@divisor 000A  
           main@marcados 0019          ___awdiv@counter 000C                    _TMR0H 000FD7  
                  _TMR0L 000FD6                    _PORTB 000F81                    _PORTD 000F83  
                  _TRISB 000F93                    _TRISD 000F95                    _conta 002D  
                  _linha 002E                    _pisca 0029                    _verde 0041  
                  main@i 0027                    ttemp5 004B                    ttemp6 004E  
                  ttemp7 0052                    status 000FD8                    wtemp8 004B  
        __initialization 12B4             __end_of_main 0AE2                   ??_main 0016  
          __activetblptr 000000                   _ADCON1 000FC1         ___awdiv@dividend 0008  
                 i2l1040 0DEA                   i2l1032 0DAE                   i2l1050 0FB2  
                 i2l1042 0DF4                   i2l1034 0DBC                   i2l1060 0FE0  
                 i2l1052 0FC4                   i2l1044 0E06                   i2l1036 0DD0  
                 i2l1062 0FFA                   i2l1054 0FC8                   i2l1046 0E0C  
                 i2l1038 0DDA                   i2l1064 0FFE                   i2l1056 0FCA  
                 i2l1048 0FB0                   i2l1066 1002                   i2l1058 0FDC  
                 _INTCON 000FF2         ??_conf_interrupt 0008                   ___wmul 1274  
              ??___awdiv 000C                ??___awmod 000C            ?_limpa_matriz 0008  
                 _cursor 002F                   clear_0 12BA         ___awdiv@quotient 000E  
        ___awmod@divisor 000A                   isa$std 000001          ___awmod@counter 000C  
 main@pontuacao_vermelho 0025             ?_testa_velha 0008               __accesstop 0080  
__end_of__initialization 12C0            ___rparam_used 000001           __pcstackCOMRAM 0001  
         ??_limpa_matriz 000A                  ?___wmul 0010                  i2u50_40 0F98  
                i2u42_40 0DBC                  i2u50_41 0F92                  i2u42_41 0DB8  
                i2u51_40 0F9A                  i2u43_40 0DD0                  i2u43_41 0DCC  
                i2u52_40 0FC4                  i2u44_40 0DEA                  i2u52_41 0FC0  
                i2u44_41 0DE6                  i2u53_40 0FDC                  i2u45_40 0E06  
                i2u53_41 0FD8                  i2u45_41 0E02                  i2u54_40 0FF4  
                i2u46_40 0EF4                  i2u54_41 0FEE                  i2u46_41 0EEE  
                i2u55_40 0FF6                  i2u47_40 0EF6                  i2u48_40 0F48  
                i2u48_41 0F42                  i2u49_40 0F4A          testa_velha@soma 0011  
 __size_of_interrupt_PIC 1010                  __Hparam 0000                  __Lparam 0000  
                ___awdiv 1018                  ___awmod 10DC          __size_of___wmul 0026  
                __pcinit 12B4                  __ramtop 0600                  __ptext0 0012  
                __ptext1 118C                  __ptext2 0AE2                  __ptext3 1222  
                __ptext4 129A                  __ptext5 1274                  __ptext6 10DC  
                __ptext7 1018                _T0CONbits 000FD5         ___awmod@dividend 0008  
                main@aux 0022           __pintcode_body 0D9C     end_of_initialization 12C0  
   __end_of_limpa_matriz 1274                  int_func 0D9C     __size_of_testa_velha 0096  
                postinc0 000FEE                  postinc2 000FDE            _interrupt_PIC 0008  
          ?_testa_ganhou 0008                _PORTBbits 000F81                _PORTDbits 000F83  
      testa_velha@teste1 0008        testa_velha@teste2 000A           ?_interrupt_PIC 0001  
         ??_testa_ganhou 000A           __end_of___wmul 129A      start_initialization 12B4  
               ??___wmul 0014  __size_of_conf_interrupt 001A              __pbssCOMRAM 0029  
  __size_of_limpa_matriz 0052          ??_interrupt_PIC 0001                __pintcode 0008  
               ?___awdiv 0008                 ?___awmod 0008             _limpa_matriz 1222  
   __end_of_testa_ganhou 0D9C           ___wmul@product 0014        ___wmul@multiplier 0010  
          ??_testa_velha 000C      main@pontuacao_verde 0026                 __Hrparam 0000  
               __Lrparam 0000         __size_of___awdiv 00C4         __size_of___awmod 00B0  
         _conf_interrupt 129A            __size_of_main 0AD0      __end_of_testa_velha 1222  
               isa$xinst 000000                 int$flags 004A                 _vermelho 0038  
 __end_of_conf_interrupt 12B4       limpa_matriz@matriz 0008               _INTCONbits 000FF2  
  __size_of_testa_ganhou 02BA                 intlevel2 0000          ?_conf_interrupt 0001  
           _testa_ganhou 0AE2              _testa_velha 118C             main@MOVE_Old 0023  
            main@SEL_Old 0024        testa_ganhou@teste 0008            limpa_matriz@i 000C  
          limpa_matriz@j 000D  
